ARM GAS  C:\Users\lesia\AppData\Local\Temp\ccLDvqSj.s 			page 1


   1              		.syntax unified
   2              		.cpu cortex-m0
   3              		.fpu softvfp
   4              		.eabi_attribute 20, 1
   5              		.eabi_attribute 21, 1
   6              		.eabi_attribute 23, 3
   7              		.eabi_attribute 24, 1
   8              		.eabi_attribute 25, 1
   9              		.eabi_attribute 26, 1
  10              		.eabi_attribute 30, 6
  11              		.eabi_attribute 34, 0
  12              		.eabi_attribute 18, 4
  13              		.thumb
  14              		.syntax unified
  15              		.file	"ble_process.c"
  16              		.text
  17              	.Ltext0:
  18              		.cfi_sections	.debug_frame
  19              		.comm	current_watchdog_counter,2,2
  20              		.comm	speedLeft,4,4
  21              		.comm	speedRight,4,4
  22              		.comm	RGBData,2,4
  23              		.global	dataADVCounter
  24              		.data
  25              		.type	dataADVCounter, %object
  26              		.size	dataADVCounter, 1
  27              	dataADVCounter:
  28 0000 01       		.byte	1
  29              		.global	switch_Role
  30              		.bss
  31              		.type	switch_Role, %object
  32              		.size	switch_Role, 1
  33              	switch_Role:
  34 0000 00       		.space	1
  35              		.comm	new_advData,32,4
  36              		.global	potential_node_found
  37              		.type	potential_node_found, %object
  38              		.size	potential_node_found, 1
  39              	potential_node_found:
  40 0001 00       		.space	1
  41              		.comm	potential_node_bdAddr,6,4
  42              		.global	potential_node_bdAddrType
  43              		.type	potential_node_bdAddrType, %object
  44              		.size	potential_node_bdAddrType, 1
  45              	potential_node_bdAddrType:
  46 0002 00       		.space	1
  47              		.global	scan_tag
  48              		.data
  49 0001 000000   		.align	2
  50              		.type	scan_tag, %object
  51              		.size	scan_tag, 20
  52              	scan_tag:
  53 0004 13       		.byte	19
  54 0005 21       		.byte	33
  55 0006 31       		.byte	49
  56 0007 01       		.byte	1
  57 0008 9B       		.byte	-101
ARM GAS  C:\Users\lesia\AppData\Local\Temp\ccLDvqSj.s 			page 2


  58 0009 5F       		.byte	95
  59 000a 80       		.byte	-128
  60 000b 00       		.byte	0
  61 000c 00       		.byte	0
  62 000d 80       		.byte	-128
  63 000e 00       		.byte	0
  64 000f 10       		.byte	16
  65 0010 00       		.byte	0
  66 0011 00       		.byte	0
  67 0012 BB       		.byte	-69
  68 0013 CB       		.byte	-53
  69 0014 03       		.byte	3
  70 0015 00       		.byte	0
  71 0016 BB       		.byte	-69
  72 0017 CB       		.byte	-53
  73              		.comm	peripAddr,7,4
  74              		.global	clientConnectToDevice
  75              		.bss
  76              		.type	clientConnectToDevice, %object
  77              		.size	clientConnectToDevice, 1
  78              	clientConnectToDevice:
  79 0003 00       		.space	1
  80              		.global	ble_gap_state
  81              		.data
  82              		.type	ble_gap_state, %object
  83              		.size	ble_gap_state, 1
  84              	ble_gap_state:
  85 0018 01       		.byte	1
  86              		.global	deviceConnected
  87              		.bss
  88              		.type	deviceConnected, %object
  89              		.size	deviceConnected, 1
  90              	deviceConnected:
  91 0004 00       		.space	1
  92              		.global	restartScanning
  93              		.type	restartScanning, %object
  94              		.size	restartScanning, 1
  95              	restartScanning:
  96 0005 00       		.space	1
  97              		.global	centralStartedTime
  98              		.align	1
  99              		.type	centralStartedTime, %object
 100              		.size	centralStartedTime, 2
 101              	centralStartedTime:
 102 0006 0000     		.space	2
 103              		.section	.rodata
 104              		.align	2
 105              	.LC3:
 106 0000 53706565 		.ascii	"Speed Left\000"
 106      64204C65 
 106      667400
 107 000b 00       		.align	2
 108              	.LC8:
 109 000c 53706565 		.ascii	"Speed Right\000"
 109      64205269 
 109      67687400 
 110              		.align	2
ARM GAS  C:\Users\lesia\AppData\Local\Temp\ccLDvqSj.s 			page 3


 111              	.LC16:
 112 0018 54697461 		.ascii	"Titan Found \000"
 112      6E20466F 
 112      756E6420 
 112      00
 113 0025 000000   		.align	2
 114              	.LC18:
 115 0028 53746F70 		.ascii	"Stop Scan called \000"
 115      20536361 
 115      6E206361 
 115      6C6C6564 
 115      2000
 116              		.section	.text.GenericEventHandler,"ax",%progbits
 117              		.align	2
 118              		.global	GenericEventHandler
 119              		.code	16
 120              		.thumb_func
 121              		.type	GenericEventHandler, %function
 122              	GenericEventHandler:
 123              	.LFB35:
 124              		.file 1 "ble_process.c"
   1:ble_process.c **** /*******************************************************************************
   2:ble_process.c **** * File Name: ble_process.c
   3:ble_process.c **** *
   4:ble_process.c **** * Version: 1.0
   5:ble_process.c **** *
   6:ble_process.c **** * Description:
   7:ble_process.c **** * This file contains the definiton for BLE related functions, such as event handler,
   8:ble_process.c **** * GAP role switching, central scanning and connection to peripherals.
   9:ble_process.c **** *
  10:ble_process.c **** ********************************************************************************
  11:ble_process.c **** * Copyright 2015, Cypress Semiconductor Corporation.  All rights reserved.
  12:ble_process.c **** * You may use this file only in accordance with the license, terms, conditions,
  13:ble_process.c **** * disclaimers, and limitations in the end user license agreement accompanying
  14:ble_process.c **** * the software package with which this file was provided.
  15:ble_process.c **** *******************************************************************************/
  16:ble_process.c **** #include <main.h>
  17:ble_process.c **** 
  18:ble_process.c **** uint8 RGBData[2];
  19:ble_process.c **** uint8 dataADVCounter = 1;
  20:ble_process.c **** uint8 switch_Role = FALSE;
  21:ble_process.c **** 
  22:ble_process.c **** #ifdef ENABLE_ADV_DATA_COUNTER
  23:ble_process.c **** CYBLE_GAPP_DISC_DATA_T  new_advData;
  24:ble_process.c **** uint8 potential_node_found = 0;
  25:ble_process.c **** uint8 potential_node_bdAddr[6];
  26:ble_process.c **** uint8 potential_node_bdAddrType = 0;
  27:ble_process.c **** #endif
  28:ble_process.c **** 
  29:ble_process.c **** uint8 scan_tag[SCAN_TAG_DATA_LEN] = {0x13, 0x21, 0x31, 0x01, 0x9B, 0x5F, 0x80, 0x00,
  30:ble_process.c **** 									0x00, 0x80, 0x00, 0x10, 0x00, 0x00, 0xBB, 0xCB, 
  31:ble_process.c **** 									0x03, 0x00, 0xBB, 0xCB};
  32:ble_process.c **** 
  33:ble_process.c **** /*uint8 scan_tag[SCAN_TAG_DATA_LEN] = {0x13, 0x21, 0xF0, 0x34, 0x9B, 0x5F, 0x80, 0x00,
  34:ble_process.c **** 									0x00, 0x80, 0x00, 0x10, 0x00, 0x00, 0x00, 0x00, 
  35:ble_process.c **** 									0x00, 0x00, 0xBB, 0xCB};*/
  36:ble_process.c **** CYBLE_GAP_BD_ADDR_T				peripAddr;
ARM GAS  C:\Users\lesia\AppData\Local\Temp\ccLDvqSj.s 			page 4


  37:ble_process.c **** uint8 clientConnectToDevice = FALSE;
  38:ble_process.c **** uint8 ble_gap_state = BLE_PERIPHERAL;
  39:ble_process.c **** 
  40:ble_process.c **** uint8 deviceConnected = FALSE;
  41:ble_process.c **** uint8 restartScanning = FALSE;
  42:ble_process.c **** volatile uint16 centralStartedTime = 0;
  43:ble_process.c **** 
  44:ble_process.c **** /*******************************************************************************
  45:ble_process.c **** * Function Name: GenericEventHandler
  46:ble_process.c **** ********************************************************************************
  47:ble_process.c **** * Summary:
  48:ble_process.c **** *        Event handler function for the BLE stack. All the events by BLE stack
  49:ble_process.c **** * are received by application through this function. For this, CyBle_ProcessEvents()
  50:ble_process.c **** * should be called continuously in main loop.
  51:ble_process.c **** *
  52:ble_process.c **** * Parameters:
  53:ble_process.c **** *  event: 		event value
  54:ble_process.c **** *  eventParame: pointer to the location where relevant event data is stored
  55:ble_process.c **** *
  56:ble_process.c **** * Return:
  57:ble_process.c **** *  void
  58:ble_process.c **** *
  59:ble_process.c **** *******************************************************************************/
  60:ble_process.c **** void GenericEventHandler(uint32 event, void * eventParam)
  61:ble_process.c **** {
 125              		.loc 1 61 0
 126              		.cfi_startproc
 127              		@ args = 0, pretend = 0, frame = 88
 128              		@ frame_needed = 1, uses_anonymous_args = 0
 129 0000 90B5     		push	{r4, r7, lr}
 130              		.cfi_def_cfa_offset 12
 131              		.cfi_offset 4, -12
 132              		.cfi_offset 7, -8
 133              		.cfi_offset 14, -4
 134 0002 97B0     		sub	sp, sp, #92
 135              		.cfi_def_cfa_offset 104
 136 0004 00AF     		add	r7, sp, #0
 137              		.cfi_def_cfa_register 7
 138 0006 7860     		str	r0, [r7, #4]
 139 0008 3960     		str	r1, [r7]
  62:ble_process.c **** 	/* Local variables and data structures*/
  63:ble_process.c **** 	CYBLE_GATTS_WRITE_REQ_PARAM_T 		writeReqData;
  64:ble_process.c **** 	CYBLE_GATTC_WRITE_REQ_T				writeADVcounterdata;
  65:ble_process.c **** 	CYBLE_GAPC_ADV_REPORT_T				scan_report;
  66:ble_process.c **** 	CYBLE_GATTS_WRITE_CMD_REQ_PARAM_T	writeCmdData;
  67:ble_process.c **** 	CYBLE_API_RESULT_T					apiResult;
  68:ble_process.c **** 	CYBLE_GATTC_WRITE_REQ_T 			writeRGBdata;
  69:ble_process.c **** 	// CYBLE_GATTC_WRITE_REQ_T 			writeRIGHTdata;
  70:ble_process.c ****     
  71:ble_process.c **** 	switch(event)
 140              		.loc 1 71 0
 141 000a 7B68     		ldr	r3, [r7, #4]
 142 000c 2B2B     		cmp	r3, #43
 143 000e 00D1     		bne	.LCB17
 144 0010 47E2     		b	.L33	@long jump
 145              	.LCB17:
 146 0012 0FD8     		bhi	.L4
ARM GAS  C:\Users\lesia\AppData\Local\Temp\ccLDvqSj.s 			page 5


 147 0014 262B     		cmp	r3, #38
 148 0016 23D0     		beq	.L5
 149 0018 05D8     		bhi	.L6
 150 001a 012B     		cmp	r3, #1
 151 001c 1CD0     		beq	.L7
 152 001e 202B     		cmp	r3, #32
 153 0020 00D1     		bne	.LCB27
 154 0022 DAE0     		b	.L8	@long jump
 155              	.LCB27:
  72:ble_process.c **** 	{
  73:ble_process.c **** 		case CYBLE_EVT_STACK_ON:
  74:ble_process.c **** 			#ifdef DEBUG_ENABLED
  75:ble_process.c **** 			UART_UartPutString("CYBLE_EVT_STACK_ON ");
  76:ble_process.c **** 			UART_UartPutCRLF(' ');
  77:ble_process.c **** 			#endif
  78:ble_process.c **** 			/* At the start of the BLE stack, start advertisement */
  79:ble_process.c **** 			CyBle_GappStartAdvertisement(CYBLE_ADVERTISING_FAST);
  80:ble_process.c **** 		break;
  81:ble_process.c **** 			
  82:ble_process.c **** 		case CYBLE_EVT_GAPP_ADVERTISEMENT_START_STOP:
  83:ble_process.c **** 			/* This event is received at every start or stop of peripheral advertisement*/
  84:ble_process.c **** 			#ifdef DEBUG_ENABLED
  85:ble_process.c **** 			UART_UartPutString("CYBLE_EVT_GAPP_ADVERTISEMENT_START_STOP ");
  86:ble_process.c **** 			SendBLEStatetoUART(CyBle_GetState());
  87:ble_process.c **** 			UART_UartPutCRLF(' ');
  88:ble_process.c **** 			#endif
  89:ble_process.c **** 			
  90:ble_process.c **** 			if((CYBLE_STATE_DISCONNECTED == CyBle_GetState()) && (switch_Role == FALSE))
  91:ble_process.c **** 			{
  92:ble_process.c **** 				/* If the current state of the BLE is Disconnected, then restart advertisement.
  93:ble_process.c **** 				* Note that the advertisement should only be restarted if the switch flag is not
  94:ble_process.c **** 				* TRUE. If switch role flag is TRUE, then there is no need to start advertisement
  95:ble_process.c **** 				* as the GAP role has to be switched*/
  96:ble_process.c **** 				CyBle_GappStartAdvertisement(CYBLE_ADVERTISING_FAST);	
  97:ble_process.c **** 				
  98:ble_process.c **** 				if(apiResult == CYBLE_ERROR_OK)
  99:ble_process.c **** 				{
 100:ble_process.c **** 					#ifdef DEBUG_ENABLED
 101:ble_process.c **** 					UART_UartPutString("Restart Advertisement ");
 102:ble_process.c **** 					SendBLEStatetoUART(CyBle_GetState());
 103:ble_process.c **** 					UART_UartPutCRLF(' ');
 104:ble_process.c **** 					#endif
 105:ble_process.c **** 				}
 106:ble_process.c **** 			}
 107:ble_process.c **** 		break;
 108:ble_process.c **** 			
 109:ble_process.c **** 		case CYBLE_EVT_GAPC_SCAN_START_STOP:
 110:ble_process.c **** 			/* This event is received at every start or stop of central scanning*/
 111:ble_process.c **** 			#ifdef DEBUG_ENABLED
 112:ble_process.c **** 			UART_UartPutString("CYBLE_EVT_GAPC_SCAN_START_STOP ");
 113:ble_process.c **** 			SendBLEStatetoUART(CyBle_GetState());
 114:ble_process.c **** 			UART_UartPutCRLF(' ');
 115:ble_process.c **** 			#endif
 116:ble_process.c **** 		break;
 117:ble_process.c **** 			
 118:ble_process.c **** 		case CYBLE_EVT_GATT_CONNECT_IND:
 119:ble_process.c ****             updateRpm();
ARM GAS  C:\Users\lesia\AppData\Local\Temp\ccLDvqSj.s 			page 6


 120:ble_process.c **** 			/* This event is received at GATT connection with a device. This event
 121:ble_process.c **** 			* is received for both Client or Server role */
 122:ble_process.c **** 			#ifdef DEBUG_ENABLED
 123:ble_process.c **** 			UART_UartPutString("CYBLE_EVT_GATT_CONNECT_IND ");
 124:ble_process.c **** 			UART_UartPutCRLF(' ');
 125:ble_process.c **** 			#endif
 126:ble_process.c **** 		break;
 127:ble_process.c **** 		
 128:ble_process.c **** 		case CYBLE_EVT_GATT_DISCONNECT_IND:
 129:ble_process.c **** 			/* This event is received at GATT disconnection with a device. This event
 130:ble_process.c **** 			* is received for both Client or Server role */
 131:ble_process.c **** 			#ifdef DEBUG_ENABLED
 132:ble_process.c **** 			UART_UartPutString("CYBLE_EVT_GATT_DISCONNECT_IND ");
 133:ble_process.c **** 			UART_UartPutCRLF(' ');
 134:ble_process.c **** 			#endif
 135:ble_process.c **** 		break;
 136:ble_process.c **** 			
 137:ble_process.c **** 		case CYBLE_EVT_GATTS_WRITE_REQ:
 138:ble_process.c **** 			/* This event is received at when Server receives a Write request from
 139:ble_process.c **** 			* connected Client device */
 140:ble_process.c **** 			/* Save the associated event parameter in local variable */
 141:ble_process.c **** 			writeReqData = *(CYBLE_GATTS_WRITE_REQ_PARAM_T*)eventParam;
 142:ble_process.c ****             
 143:ble_process.c ****             if(writeReqData.handleValPair.attrHandle == CYBLE_MOTORSERVICE_SPEEDLEFT_CHAR_HANDLE)
 144:ble_process.c ****             {
 145:ble_process.c ****                 speedLeft = writeReqData.handleValPair.value.val[0];
 146:ble_process.c ****                          
 147:ble_process.c ****                 UART_UartPutString("Speed Left");
 148:ble_process.c ****                 PrintNum(speedLeft);
 149:ble_process.c ****                 UART_UartPutCRLF(' ');
 150:ble_process.c ****                 
 151:ble_process.c ****                 setSpeed(LEFT, speedLeft);
 152:ble_process.c ****                 
 153:ble_process.c ****                 CyBle_GattsWriteAttributeValue(&writeReqData.handleValPair,0,&cyBle_connHandle,CYBL
 154:ble_process.c ****                 #ifdef ENABLE_ADV_DATA_COUNTER
 155:ble_process.c **** 				/* Increment the ADV data counter so that scanning Central device knows
 156:ble_process.c **** 				* if this device has updated RGB LED data or not */
 157:ble_process.c **** 				dataADVCounter++;
 158:ble_process.c **** 				#endif
 159:ble_process.c **** 				
 160:ble_process.c **** 				#ifdef DEBUG_ENABLED
 161:ble_process.c **** 				UART_UartPutString("incremented dataADVCounter value in CYBLE_EVT_GATTS_WRITE_REQ= ");
 162:ble_process.c **** 				PrintNum(dataADVCounter);
 163:ble_process.c **** 				UART_UartPutCRLF(' ');
 164:ble_process.c **** 				#endif
 165:ble_process.c **** 				
 166:ble_process.c **** 				/* After receiveing the color value, set the switch role flag to allow the system
 167:ble_process.c **** 				* to switch role to Central role */
 168:ble_process.c **** 				switch_Role = TRUE;
 169:ble_process.c **** 				
 170:ble_process.c **** 				#ifdef DEBUG_ENABLED
 171:ble_process.c **** 				UART_UartPutString("switchRole to Central");
 172:ble_process.c **** 				UART_UartPutCRLF(' ');
 173:ble_process.c **** 				#endif
 174:ble_process.c ****              }   
 175:ble_process.c **** 
 176:ble_process.c ****             if(writeReqData.handleValPair.attrHandle == CYBLE_MOTORSERVICE_SPEEDRIGHT_CHAR_HANDLE)
ARM GAS  C:\Users\lesia\AppData\Local\Temp\ccLDvqSj.s 			page 7


 177:ble_process.c ****             {  // setSpeed(RIGHT, (uint8)writeReqData.handleValPair.value.val[0]);
 178:ble_process.c ****                 speedRight = writeReqData.handleValPair.value.val[0];
 179:ble_process.c **** 
 180:ble_process.c ****                 UART_UartPutString("Speed Right");
 181:ble_process.c ****                 PrintNum(speedRight);
 182:ble_process.c ****                 UART_UartPutCRLF(' ');
 183:ble_process.c ****                 
 184:ble_process.c ****                 setSpeed(RIGHT, speedRight);
 185:ble_process.c ****                 
 186:ble_process.c ****                 CyBle_GattsWriteAttributeValue(&writeReqData.handleValPair,0,&cyBle_connHandle,CYBL
 187:ble_process.c ****                 #ifdef ENABLE_ADV_DATA_COUNTER
 188:ble_process.c **** 				/* Increment the ADV data counter so that scanning Central device knows
 189:ble_process.c **** 				* if this device has updated RGB LED data or not */
 190:ble_process.c **** 				dataADVCounter++;
 191:ble_process.c **** 				#endif
 192:ble_process.c **** 				
 193:ble_process.c **** 				#ifdef DEBUG_ENABLED
 194:ble_process.c **** 				UART_UartPutString("incremented dataADVCounter value in CYBLE_EVT_GATTS_WRITE_REQ= ");
 195:ble_process.c **** 				PrintNum(dataADVCounter);
 196:ble_process.c **** 				UART_UartPutCRLF(' ');
 197:ble_process.c **** 				#endif
 198:ble_process.c **** 				
 199:ble_process.c **** 				/* After receiveing the color value, set the switch role flag to allow the system
 200:ble_process.c **** 				* to switch role to Central role */
 201:ble_process.c **** 				switch_Role = TRUE;
 202:ble_process.c **** 				
 203:ble_process.c **** 				#ifdef DEBUG_ENABLED
 204:ble_process.c **** 				UART_UartPutString("switchRole to Central");
 205:ble_process.c **** 				UART_UartPutCRLF(' ');
 206:ble_process.c **** 				#endif
 207:ble_process.c ****              }   
 208:ble_process.c **** 
 209:ble_process.c **** 			if(writeReqData.handleValPair.attrHandle == CYBLE_RGB_LED_CONTROL_CHAR_HANDLE)
 210:ble_process.c **** 			{
 211:ble_process.c **** 				/* If the Write request is on RGB LED Control Characteristic, then Client is 
 212:ble_process.c **** 				* trying to set a new color to the device. */
 213:ble_process.c **** 				if(writeReqData.handleValPair.value.len == RGB_LED_DATA_LEN)
 214:ble_process.c **** 			{
 215:ble_process.c **** 					#ifdef DEBUG_ENABLED
 216:ble_process.c **** 						UART_UartPutString("RGB CYBLE_EVT_GATTS_WRITE_REQ ");
 217:ble_process.c **** 						UART_UartPutCRLF(' ');
 218:ble_process.c **** 					#endif
 219:ble_process.c **** 				
 220:ble_process.c **** 					/* Extract the four bytes containing the color value and store it */
 221:ble_process.c **** 		    		RGBData[RGB_RED_INDEX] = writeReqData.handleValPair.value.val[0];
 222:ble_process.c **** 					RGBData[RGB_GREEN_INDEX] = writeReqData.handleValPair.value.val[1];
 223:ble_process.c **** 			//		RGBData[RGB_BLUE_INDEX] = writeReqData.handleValPair.value.val[2];
 224:ble_process.c **** 			//		RGBData[RGB_INTENSITY_INDEX] = writeReqData.handleValPair.value.val[3];
 225:ble_process.c **** 					
 226:ble_process.c **** 					/* Modify RGB Color my configuring the PrISM components with new density 
 227:ble_process.c **** 					* value*/
 228:ble_process.c ****                                                        
 229:ble_process.c **** 					UpdateRGBled(RGBData, RGB_LED_DATA_LEN);
 230:ble_process.c **** 					
 231:ble_process.c **** 					/* Update the RGB LED Control characteristic in GATT DB  to allow
 232:ble_process.c **** 					* Client to read the latest RGB LED color value set */
 233:ble_process.c **** 					CyBle_GattsWriteAttributeValue(&writeReqData.handleValPair,0,&cyBle_connHandle,CYBLE_GATT_DB_L
ARM GAS  C:\Users\lesia\AppData\Local\Temp\ccLDvqSj.s 			page 8


 234:ble_process.c **** 				    
 235:ble_process.c **** 					#ifdef ENABLE_ADV_DATA_COUNTER
 236:ble_process.c **** 					/* Increment the ADV data counter so that scanning Central device knows
 237:ble_process.c **** 					* if this device has updated RGB LED data or not */
 238:ble_process.c **** 					dataADVCounter++;
 239:ble_process.c **** 					#endif
 240:ble_process.c **** 					
 241:ble_process.c **** 					#ifdef DEBUG_ENABLED
 242:ble_process.c **** 					UART_UartPutString("incremented dataADVCounter value in CYBLE_EVT_GATTS_WRITE_REQ= ");
 243:ble_process.c **** 					PrintNum(dataADVCounter);
 244:ble_process.c **** 					UART_UartPutCRLF(' ');
 245:ble_process.c **** 					#endif
 246:ble_process.c **** 					
 247:ble_process.c **** 					/* After receiveing the color value, set the switch role flag to allow the system
 248:ble_process.c **** 					* to switch role to Central role */
 249:ble_process.c **** 					switch_Role = TRUE;
 250:ble_process.c **** 					
 251:ble_process.c **** 					#ifdef DEBUG_ENABLED
 252:ble_process.c **** 					UART_UartPutString("switchRole to Central");
 253:ble_process.c **** 					UART_UartPutCRLF(' ');
 254:ble_process.c **** 					#endif
 255:ble_process.c **** 				}
 256:ble_process.c **** 				else
 257:ble_process.c **** 				{
 258:ble_process.c **** 					/* Send the error code for invalid attribute length packet */
 259:ble_process.c **** 					SendErrorCode(CYBLE_GATT_WRITE_REQ, 
 260:ble_process.c **** 									writeReqData.handleValPair.attrHandle, 
 261:ble_process.c **** 									ERR_INVALID_ATT_LEN);
 262:ble_process.c **** 					
 263:ble_process.c **** 					return;
 264:ble_process.c **** 				}
 265:ble_process.c **** 			}
 266:ble_process.c **** 
 267:ble_process.c **** 			/* As part of every write request, the server needs to send a write response. Note
 268:ble_process.c **** 			* that this will be sent only if all the application layer conditions are met on a 
 269:ble_process.c **** 			* write request. Else, an appropriate error code is sent. */
 270:ble_process.c **** 	        CyBle_GattsWriteRsp(cyBle_connHandle);
 271:ble_process.c **** 		break;
 272:ble_process.c **** 			   
 273:ble_process.c **** 		case CYBLE_EVT_GAPC_SCAN_PROGRESS_RESULT:
 274:ble_process.c **** 			/* This event is generated whenever there is a peripheral device found by 
 275:ble_process.c **** 			* while scanning */
 276:ble_process.c **** 			if(CYBLE_STATE_CONNECTED != CyBle_GetState())	
 277:ble_process.c **** 			{
 278:ble_process.c **** 				/* If we are not connected to any peripheral device, then save the new device  
 279:ble_process.c **** 				* information so to add it to our list */
 280:ble_process.c **** 				scan_report = *(CYBLE_GAPC_ADV_REPORT_T*)eventParam;
 281:ble_process.c **** 				
 282:ble_process.c **** 				#ifdef DEBUG_ENABLED
 283:ble_process.c **** 					UART_UartPutString("CYBLE_EVT_GAPC_SCAN_PROGRESS_RESULT ");
 284:ble_process.c **** 					UART_UartPutCRLF(' ');
 285:ble_process.c **** 				#endif
 286:ble_process.c **** 				
 287:ble_process.c **** 				#ifdef ENABLE_ADV_DATA_COUNTER
 288:ble_process.c **** 				/* If ADV DATA COUNTER is enabled, then the central device would check
 289:ble_process.c **** 				* if the counter in ADV packet of peripheral is less than its own counter
 290:ble_process.c **** 				* or not. If yes, then it will consider the peripheral as a potential 
ARM GAS  C:\Users\lesia\AppData\Local\Temp\ccLDvqSj.s 			page 9


 291:ble_process.c **** 				* device to connect to.*/
 292:ble_process.c **** 				if(scan_report.eventType == CYBLE_GAPC_CONN_UNDIRECTED_ADV)
 293:ble_process.c **** 				{
 294:ble_process.c **** 					/* If the scan report received is of advertising nature and the data 
 295:ble_process.c **** 					* length is as expected... */
 296:ble_process.c **** 					if(scan_report.dataLen == new_advData.advDataLen)
 297:ble_process.c **** 					{
 298:ble_process.c ****                        // PrintHex(scan_report.dataLen);
 299:ble_process.c **** 						/* If the second last value of the advertising data matches the custom 
 300:ble_process.c **** 						* marker, then the peripheral is a node of the network */
 301:ble_process.c **** 						if(scan_report.data[scan_report.dataLen-2] == CUSTOM_ADV_DATA_MARKER)
 302:ble_process.c **** 						{
 303:ble_process.c **** 							/* If the ADV counter data in Advertising data is less than that of
 304:ble_process.c **** 							* the value in this scanning device, then the node is a potential node 
 305:ble_process.c **** 							* whose color has to be updated. */
 306:ble_process.c **** 							if((scan_report.data[scan_report.dataLen-1] < dataADVCounter) ||
 307:ble_process.c **** 							((scan_report.data[scan_report.dataLen-1] == 100) && (dataADVCounter == 0)))
 308:ble_process.c **** 							{
 309:ble_process.c **** 								/* Potential node found*/
 310:ble_process.c **** 								potential_node_found = TRUE;
 311:ble_process.c **** 								/* Save the advertising peripheral address and type*/
 312:ble_process.c **** 								memcpy(potential_node_bdAddr, scan_report.peerBdAddr, 6);
 313:ble_process.c **** 								potential_node_bdAddrType = scan_report.peerAddrType;
 314:ble_process.c **** 								
 315:ble_process.c ****                                                                 
 316:ble_process.c **** 								#ifdef DEBUG_ENABLED
 317:ble_process.c **** 								UART_UartPutString("potential_node_found ");
 318:ble_process.c ****                                 PrintHex(scan_report.dataLen);
 319:ble_process.c **** 								UART_UartPutCRLF(' ');
 320:ble_process.c **** 								#endif
 321:ble_process.c **** 							}
 322:ble_process.c **** 							else
 323:ble_process.c **** 							{
 324:ble_process.c **** 								/* If the ADV data counter is equal or more than the data counter
 325:ble_process.c **** 								* in this scanning device, then the node has latest RGB LED data
 326:ble_process.c **** 								* and does not need to be connected to. Reset the potential node 
 327:ble_process.c **** 								* address */
 328:ble_process.c **** 								potential_node_found = FALSE;
 329:ble_process.c **** 								
 330:ble_process.c **** 								potential_node_bdAddrType = 0;
 331:ble_process.c **** 								
 332:ble_process.c **** 								potential_node_bdAddr[0] = 0x00;
 333:ble_process.c **** 								potential_node_bdAddr[1] = 0x00;
 334:ble_process.c **** 								potential_node_bdAddr[2] = 0x00;
 335:ble_process.c **** 								potential_node_bdAddr[3] = 0x00;
 336:ble_process.c **** 								potential_node_bdAddr[4] = 0x00;
 337:ble_process.c **** 								potential_node_bdAddr[5] = 0x00;
 338:ble_process.c **** 							}
 339:ble_process.c **** 						}
 340:ble_process.c **** 					}
 341:ble_process.c **** 				}
 342:ble_process.c **** 				#endif
 343:ble_process.c **** 				
 344:ble_process.c **** 				/* If the received scan data is part of scan response from a peripheral... */
 345:ble_process.c **** 				if(scan_report.eventType == CYBLE_GAPC_SCAN_RSP)
 346:ble_process.c **** 				{
 347:ble_process.c **** 					/* If the data lenght of the scan reponse packet is equal to expected
ARM GAS  C:\Users\lesia\AppData\Local\Temp\ccLDvqSj.s 			page 10


 348:ble_process.c **** 					* scan response data lenght...*/
 349:ble_process.c **** 					if(scan_report.dataLen == SCAN_TAG_DATA_LEN)
 350:ble_process.c **** 					{
 351:ble_process.c **** 						#ifdef ENABLE_ADV_DATA_COUNTER
 352:ble_process.c **** 						/* If a potential node had been found earlier as part of received 
 353:ble_process.c **** 						* advertising data, then compare the address of stored potential 
 354:ble_process.c **** 						* node and received address of the scan response */
 355:ble_process.c **** 						if(potential_node_found)
 356:ble_process.c **** 						{
 357:ble_process.c **** 							/* Compare the two addresses and type */
 358:ble_process.c **** 							if((!memcmp(scan_report.peerBdAddr, potential_node_bdAddr, 6))  
 359:ble_process.c **** 								&& (potential_node_bdAddrType == scan_report.peerAddrType))
 360:ble_process.c **** 							{
 361:ble_process.c **** 						#endif
 362:ble_process.c **** 								/* If the scan report data matches the expected data (scan_tag),
 363:ble_process.c **** 								* then it is our desired node */
 364:ble_process.c **** 								if(!memcmp(scan_report.data, scan_tag, scan_report.dataLen))
 365:ble_process.c **** 								{
 366:ble_process.c **** 								//	#ifdef DEBUG_ENABLED
 367:ble_process.c **** 									UART_UartPutString("Titan Found ");
 368:ble_process.c ****                                     PrintHex(scan_report.dataLen);
 369:ble_process.c **** 									UART_UartPutCRLF(' ');
 370:ble_process.c **** 								//	#endif
 371:ble_process.c **** 									/* Stop existing scan */
 372:ble_process.c **** 									CyBle_GapcStopScan();
 373:ble_process.c **** 								//	#ifdef DEBUG_ENABLED
 374:ble_process.c **** 									UART_UartPutString("Stop Scan called ");
 375:ble_process.c **** 									UART_UartPutCRLF(' ');
 376:ble_process.c **** 								//	#endif
 377:ble_process.c **** 									
 378:ble_process.c **** 									/* Save the peripheral BD address and type*/
 379:ble_process.c **** 									peripAddr.type = scan_report.peerAddrType;
 380:ble_process.c **** 									peripAddr.bdAddr[0] = scan_report.peerBdAddr[0];
 381:ble_process.c **** 									peripAddr.bdAddr[1] = scan_report.peerBdAddr[1];
 382:ble_process.c **** 									peripAddr.bdAddr[2] = scan_report.peerBdAddr[2];
 383:ble_process.c **** 									peripAddr.bdAddr[3] = scan_report.peerBdAddr[3];
 384:ble_process.c **** 									peripAddr.bdAddr[4] = scan_report.peerBdAddr[4];
 385:ble_process.c **** 									peripAddr.bdAddr[5] = scan_report.peerBdAddr[5];
 386:ble_process.c **** 
 387:ble_process.c **** 									/* Set the flag to allow application to connect to the
 388:ble_process.c **** 									* peripheral found */
 389:ble_process.c **** 									clientConnectToDevice = TRUE;
 390:ble_process.c **** 									
 391:ble_process.c **** 									#ifdef ENABLE_ADV_DATA_COUNTER
 392:ble_process.c **** 									/* Reset the potential node flag*/
 393:ble_process.c **** 									potential_node_found = FALSE;
 394:ble_process.c **** 									#endif
 395:ble_process.c **** 								}
 396:ble_process.c **** 						#ifdef ENABLE_ADV_DATA_COUNTER
 397:ble_process.c **** 							}
 398:ble_process.c **** 						}
 399:ble_process.c **** 						#endif
 400:ble_process.c **** 					}
 401:ble_process.c **** 				}
 402:ble_process.c **** 			}
 403:ble_process.c **** 
 404:ble_process.c **** 		break;
ARM GAS  C:\Users\lesia\AppData\Local\Temp\ccLDvqSj.s 			page 11


 405:ble_process.c **** 			
 406:ble_process.c **** 		case CYBLE_EVT_GAP_DEVICE_CONNECTED:
 407:ble_process.c **** 			/* This event is received whenever the device connect on GAP layer */
 408:ble_process.c **** 			if(ble_gap_state == BLE_CENTRAL)
 409:ble_process.c **** 			{
 410:ble_process.c **** 				#ifdef ENABLE_CENTRAL_DISCOVERY
 411:ble_process.c **** 					/* The Device is connected now. Start Attributes discovery process.*/
 412:ble_process.c **** 					CyBle_GattcStartDiscovery(cyBle_connHandle);
 413:ble_process.c **** 					#ifdef DEBUG_ENABLED
 414:ble_process.c **** 						UART_UartPutString("CYBLE_EVT_GAP_DEVICE_CONNECTED ");
 415:ble_process.c **** 						SendBLEStatetoUART(CyBle_GetState());
 416:ble_process.c **** 						UART_UartPutCRLF(' ');
 417:ble_process.c **** 					#endif
 418:ble_process.c **** 				#else
 419:ble_process.c **** 					/* If this system is currently acting in Central role and has connected
 420:ble_process.c **** 					* to a peripheral device, then write directly the ADV counter data and
 421:ble_process.c **** 					* RGB LED control data using attribute handles */
 422:ble_process.c **** 					
 423:ble_process.c **** 					/* Set the device connected flag */
 424:ble_process.c **** 					deviceConnected = TRUE;
 425:ble_process.c **** 					
 426:ble_process.c **** 					#ifdef DEBUG_ENABLED
 427:ble_process.c **** 						UART_UartPutString("Directly write RGB using Attr handle ");
 428:ble_process.c **** 						SendBLEStatetoUART(CyBle_GetState());
 429:ble_process.c **** 						UART_UartPutCRLF(' ');
 430:ble_process.c **** 					#endif
 431:ble_process.c **** 				    
 432:ble_process.c ****                     writeRGBdata.attrHandle = CYBLE_RGB_LED_CONTROL_CHAR_HANDLE;
 433:ble_process.c ****         			writeRGBdata.value.val = RGBData;
 434:ble_process.c ****         			writeRGBdata.value.len = RGB_LED_DATA_LEN;
 435:ble_process.c ****         			CyBle_GattcWriteCharacteristicValue(cyBle_connHandle, &writeRGBdata);
 436:ble_process.c ****                     
 437:ble_process.c ****                                        
 438:ble_process.c ****                     #ifdef DEBUG_ENABLED
 439:ble_process.c **** 						UART_UartPutString("----- ADVcounterdata ");
 440:ble_process.c **** 						PrintHex(writeADVcounterdata.value.val);
 441:ble_process.c **** 						UART_UartPutCRLF(' ');
 442:ble_process.c ****                         
 443:ble_process.c ****                         UART_UartPutString("----- writeRGBdata ");
 444:ble_process.c **** 						PrintHex(writeRGBdata.value.val);
 445:ble_process.c **** 						UART_UartPutCRLF(' ');
 446:ble_process.c ****                         
 447:ble_process.c **** 					#endif
 448:ble_process.c **** 				#endif
 449:ble_process.c **** 			}	
 450:ble_process.c ****         break;
 451:ble_process.c **** 			
 452:ble_process.c **** 		case CYBLE_EVT_GATTC_DISCOVERY_COMPLETE:
 453:ble_process.c **** 			/* This event is generated whenever the discovery procedure is complete*/
 454:ble_process.c ****             CyBle_GappStartAdvertisement(CYBLE_ADVERTISING_FAST);
 455:ble_process.c ****             
 456:ble_process.c **** 			#ifdef ENABLE_CENTRAL_DISCOVERY
 457:ble_process.c **** 			deviceConnected = TRUE;
 458:ble_process.c **** 			#ifdef DEBUG_ENABLED
 459:ble_process.c **** 				UART_UartPutString("CYBLE_EVT_GATTC_DISCOVERY_COMPLETE ");
 460:ble_process.c **** 				SendBLEStatetoUART(CyBle_GetState());
 461:ble_process.c **** 				UART_UartPutCRLF(' ');
ARM GAS  C:\Users\lesia\AppData\Local\Temp\ccLDvqSj.s 			page 12


 462:ble_process.c **** 			#endif
 463:ble_process.c **** 			
 464:ble_process.c **** 			/* Write the Data Counter value */
 465:ble_process.c **** 			writeADVcounterdata.attrHandle = CYBLE_RGB_DATA_COUNT_CHAR_HANDLE;
 466:ble_process.c **** 			writeADVcounterdata.value.val = &dataADVCounter;
 467:ble_process.c **** 			writeADVcounterdata.value.len = 1;
 468:ble_process.c **** 			CyBle_GattcWriteWithoutResponse(cyBle_connHandle, &writeADVcounterdata);
 469:ble_process.c **** 		
 470:ble_process.c **** 			/* Write the RGB LED Value */
 471:ble_process.c **** 			writeRGBdata.attrHandle = CYBLE_RGB_LED_CONTROL_CHAR_HANDLE;
 472:ble_process.c **** 			writeRGBdata.value.val = RGBData;
 473:ble_process.c **** 			writeRGBdata.value.len = RGB_LED_DATA_LEN;
 474:ble_process.c **** 			CyBle_GattcWriteCharacteristicValue(cyBle_connHandle, &writeRGBdata);
 475:ble_process.c **** 			#endif
 476:ble_process.c **** 		break;
 477:ble_process.c **** 			
 478:ble_process.c **** 		case CYBLE_EVT_GATTC_WRITE_RSP:
 479:ble_process.c **** 			/* This event is generated when the Client device receives a response
 480:ble_process.c **** 			* as part of the Write request sent earlier. This indicates that
 481:ble_process.c **** 			* the RGB LED data was written successfully */
 482:ble_process.c **** 			#ifdef DEBUG_ENABLED
 483:ble_process.c **** 				UART_UartPutString("CYBLE_EVT_GATTC_WRITE_RSP ");
 484:ble_process.c **** 				SendBLEStatetoUART(CyBle_GetState());
 485:ble_process.c **** 				UART_UartPutCRLF(' ');
 486:ble_process.c **** 			#endif
 487:ble_process.c **** 			
 488:ble_process.c **** 			/* Disconnect the existing connection and restart scanning */
 489:ble_process.c **** 			if((cyBle_connHandle.bdHandle != 0))
 490:ble_process.c **** 			{
 491:ble_process.c **** 				CyBle_GapDisconnect(cyBle_connHandle.bdHandle);
 492:ble_process.c **** 				
 493:ble_process.c **** 				restartScanning = TRUE;
 494:ble_process.c **** 				#ifdef DEBUG_ENABLED
 495:ble_process.c **** 				UART_UartPutString("Disconnect from CYBLE_EVT_GATTC_WRITE_RSP ");
 496:ble_process.c **** 				SendBLEStatetoUART(CyBle_GetState());
 497:ble_process.c **** 				UART_UartPutCRLF(' ');
 498:ble_process.c **** 				#endif
 499:ble_process.c **** 			}
 500:ble_process.c **** 		break;
 501:ble_process.c **** 
 502:ble_process.c **** 		case CYBLE_EVT_GAP_DEVICE_DISCONNECTED:
 503:ble_process.c **** 			/* This event is generated when the device disconnects from an 
 504:ble_process.c **** 			* existing connection */
 505:ble_process.c **** 			deviceConnected = FALSE;
 506:ble_process.c **** 			
 507:ble_process.c **** 			#ifdef DEBUG_ENABLED
 508:ble_process.c **** 				UART_UartPutString("CYBLE_EVT_GAP_DEVICE_DISCONNECTED ");
 509:ble_process.c **** 				SendBLEStatetoUART(CyBle_GetState());
 510:ble_process.c **** 				UART_UartPutCRLF(' ');
 511:ble_process.c **** 			#endif
 512:ble_process.c **** 			
 513:ble_process.c **** 			if((ble_gap_state == BLE_PERIPHERAL) && (switch_Role != TRUE))
 514:ble_process.c **** 			{
 515:ble_process.c **** 				/* If the current role of this system was Peripheral and the role
 516:ble_process.c **** 				* is not to be switched, then restart advertisement */
 517:ble_process.c **** 				if(CYBLE_STATE_DISCONNECTED == CyBle_GetState())
 518:ble_process.c **** 				{
ARM GAS  C:\Users\lesia\AppData\Local\Temp\ccLDvqSj.s 			page 13


 519:ble_process.c **** 					CyBle_GappStartAdvertisement(CYBLE_ADVERTISING_FAST);	
 520:ble_process.c **** 					#ifdef DEBUG_ENABLED
 521:ble_process.c **** 					UART_UartPutString("Restart Advertisement ");
 522:ble_process.c **** 					SendBLEStatetoUART(CyBle_GetState());
 523:ble_process.c **** 					UART_UartPutCRLF(' ');
 524:ble_process.c **** 					#endif
 525:ble_process.c **** 				}
 526:ble_process.c **** 			}
 527:ble_process.c **** 			else if((ble_gap_state == BLE_CENTRAL) && (switch_Role != TRUE))
 528:ble_process.c **** 			{
 529:ble_process.c **** 				/* If the current role of this system was Central and the role
 530:ble_process.c **** 				* is not to be switched, then restart scanning */
 531:ble_process.c **** 				if(CYBLE_STATE_DISCONNECTED == CyBle_GetState())
 532:ble_process.c **** 				{
 533:ble_process.c **** 					CyBle_GapcStartScan(CYBLE_SCANNING_FAST);	
 534:ble_process.c **** 					#ifdef DEBUG_ENABLED
 535:ble_process.c **** 					UART_UartPutString("Restart Scanning ");
 536:ble_process.c **** 					SendBLEStatetoUART(CyBle_GetState());
 537:ble_process.c **** 					UART_UartPutCRLF(' ');
 538:ble_process.c **** 					#endif
 539:ble_process.c **** 				}	
 540:ble_process.c **** 			}
 541:ble_process.c **** 		break;
 542:ble_process.c **** 			
 543:ble_process.c **** 		default:
 544:ble_process.c **** 			eventParam = eventParam;
 545:ble_process.c **** 		break;
 156              		.loc 1 545 0
 157 0024 4AE2     		b	.L1
 158              	.L6:
  71:ble_process.c **** 	{
 159              		.loc 1 71 0
 160 0026 272B     		cmp	r3, #39
 161 0028 00D1     		bne	.LCB33
 162 002a B8E1     		b	.L9	@long jump
 163              	.LCB33:
 164 002c 282B     		cmp	r3, #40
 165 002e 00D1     		bne	.LCB35
 166 0030 13E2     		b	.L10	@long jump
 167              	.LCB35:
 168              		.loc 1 545 0
 169 0032 43E2     		b	.L1
 170              	.L4:
  71:ble_process.c **** 	{
 171              		.loc 1 71 0
 172 0034 4C2B     		cmp	r3, #76
 173 0036 24D0     		beq	.L11
 174 0038 05D8     		bhi	.L12
 175 003a 412B     		cmp	r3, #65
 176 003c 1ED0     		beq	.L13
 177 003e 422B     		cmp	r3, #66
 178 0040 00D1     		bne	.LCB47
 179 0042 30E2     		b	.L34	@long jump
 180              	.LCB47:
 181              		.loc 1 545 0
 182 0044 3AE2     		b	.L1
 183              	.L12:
ARM GAS  C:\Users\lesia\AppData\Local\Temp\ccLDvqSj.s 			page 14


  71:ble_process.c **** 	{
 184              		.loc 1 71 0
 185 0046 4D2B     		cmp	r3, #77
 186 0048 00D1     		bne	.LCB53
 187 004a F9E1     		b	.L15	@long jump
 188              	.LCB53:
 189 004c 8922     		movs	r2, #137
 190 004e 5200     		lsls	r2, r2, #1
 191 0050 9342     		cmp	r3, r2
 192 0052 00D1     		bne	.LCB57
 193 0054 C8E1     		b	.L16	@long jump
 194              	.LCB57:
 195              		.loc 1 545 0
 196 0056 31E2     		b	.L1
 197              	.L7:
  79:ble_process.c **** 		break;
 198              		.loc 1 79 0
 199 0058 0020     		movs	r0, #0
 200 005a FFF7FEFF 		bl	CyBle_GappStartAdvertisement
  80:ble_process.c **** 			
 201              		.loc 1 80 0
 202 005e 2DE2     		b	.L1
 203              	.L5:
  90:ble_process.c **** 			{
 204              		.loc 1 90 0
 205 0060 E34B     		ldr	r3, .L40
 206 0062 1B78     		ldrb	r3, [r3]
 207 0064 062B     		cmp	r3, #6
 208 0066 00D0     		beq	.LCB71
 209 0068 1FE2     		b	.L35	@long jump
 210              	.LCB71:
  90:ble_process.c **** 			{
 211              		.loc 1 90 0 is_stmt 0 discriminator 1
 212 006a E24B     		ldr	r3, .L40+4
 213 006c 1B78     		ldrb	r3, [r3]
 214 006e 002B     		cmp	r3, #0
 215 0070 00D0     		beq	.LCB75
 216 0072 1AE2     		b	.L35	@long jump
 217              	.LCB75:
  96:ble_process.c **** 				
 218              		.loc 1 96 0 is_stmt 1
 219 0074 0020     		movs	r0, #0
 220 0076 FFF7FEFF 		bl	CyBle_GappStartAdvertisement
 107:ble_process.c **** 			
 221              		.loc 1 107 0
 222 007a 16E2     		b	.L35
 223              	.L13:
 119:ble_process.c **** 			/* This event is received at GATT connection with a device. This event
 224              		.loc 1 119 0
 225 007c FFF7FEFF 		bl	updateRpm
 126:ble_process.c **** 		
 226              		.loc 1 126 0
 227 0080 1CE2     		b	.L1
 228              	.L11:
 141:ble_process.c ****             
 229              		.loc 1 141 0
 230 0082 4823     		movs	r3, #72
ARM GAS  C:\Users\lesia\AppData\Local\Temp\ccLDvqSj.s 			page 15


 231 0084 FB18     		adds	r3, r7, r3
 232 0086 3A68     		ldr	r2, [r7]
 233 0088 13CA     		ldmia	r2!, {r0, r1, r4}
 234 008a 13C3     		stmia	r3!, {r0, r1, r4}
 235 008c 1268     		ldr	r2, [r2]
 236 008e 1A60     		str	r2, [r3]
 143:ble_process.c ****             {
 237              		.loc 1 143 0
 238 0090 4823     		movs	r3, #72
 239 0092 FB18     		adds	r3, r7, r3
 240 0094 9B89     		ldrh	r3, [r3, #12]
 241 0096 142B     		cmp	r3, #20
 242 0098 2AD1     		bne	.L19
 145:ble_process.c ****                          
 243              		.loc 1 145 0
 244 009a 4823     		movs	r3, #72
 245 009c FB18     		adds	r3, r7, r3
 246 009e 5B68     		ldr	r3, [r3, #4]
 247 00a0 1B78     		ldrb	r3, [r3]
 248 00a2 1A00     		movs	r2, r3
 249 00a4 D44B     		ldr	r3, .L40+8
 250 00a6 1A60     		str	r2, [r3]
 147:ble_process.c ****                 PrintNum(speedLeft);
 251              		.loc 1 147 0
 252 00a8 D44B     		ldr	r3, .L40+12
 253 00aa 1800     		movs	r0, r3
 254 00ac FFF7FEFF 		bl	UART_UartPutString
 148:ble_process.c ****                 UART_UartPutCRLF(' ');
 255              		.loc 1 148 0
 256 00b0 D14B     		ldr	r3, .L40+8
 257 00b2 1B68     		ldr	r3, [r3]
 258 00b4 DBB2     		uxtb	r3, r3
 259 00b6 1800     		movs	r0, r3
 260 00b8 FFF7FEFF 		bl	PrintNum
 149:ble_process.c ****                 
 261              		.loc 1 149 0
 262 00bc 2020     		movs	r0, #32
 263 00be FFF7FEFF 		bl	UART_UartPutCRLF
 151:ble_process.c ****                 
 264              		.loc 1 151 0
 265 00c2 CD4B     		ldr	r3, .L40+8
 266 00c4 1B68     		ldr	r3, [r3]
 267 00c6 1900     		movs	r1, r3
 268 00c8 0020     		movs	r0, #0
 269 00ca FFF7FEFF 		bl	setSpeed
 153:ble_process.c ****                 #ifdef ENABLE_ADV_DATA_COUNTER
 270              		.loc 1 153 0
 271 00ce CC4A     		ldr	r2, .L40+16
 272 00d0 4823     		movs	r3, #72
 273 00d2 FB18     		adds	r3, r7, r3
 274 00d4 181D     		adds	r0, r3, #4
 275 00d6 0023     		movs	r3, #0
 276 00d8 0021     		movs	r1, #0
 277 00da FFF7FEFF 		bl	CyBle_GattsWriteAttributeValue
 157:ble_process.c **** 				#endif
 278              		.loc 1 157 0
 279 00de C94B     		ldr	r3, .L40+20
ARM GAS  C:\Users\lesia\AppData\Local\Temp\ccLDvqSj.s 			page 16


 280 00e0 1B78     		ldrb	r3, [r3]
 281 00e2 0133     		adds	r3, r3, #1
 282 00e4 DAB2     		uxtb	r2, r3
 283 00e6 C74B     		ldr	r3, .L40+20
 284 00e8 1A70     		strb	r2, [r3]
 168:ble_process.c **** 				
 285              		.loc 1 168 0
 286 00ea C24B     		ldr	r3, .L40+4
 287 00ec 0122     		movs	r2, #1
 288 00ee 1A70     		strb	r2, [r3]
 289              	.L19:
 176:ble_process.c ****             {  // setSpeed(RIGHT, (uint8)writeReqData.handleValPair.value.val[0]);
 290              		.loc 1 176 0
 291 00f0 4823     		movs	r3, #72
 292 00f2 FB18     		adds	r3, r7, r3
 293 00f4 9B89     		ldrh	r3, [r3, #12]
 294 00f6 172B     		cmp	r3, #23
 295 00f8 2AD1     		bne	.L20
 178:ble_process.c **** 
 296              		.loc 1 178 0
 297 00fa 4823     		movs	r3, #72
 298 00fc FB18     		adds	r3, r7, r3
 299 00fe 5B68     		ldr	r3, [r3, #4]
 300 0100 1B78     		ldrb	r3, [r3]
 301 0102 1A00     		movs	r2, r3
 302 0104 C04B     		ldr	r3, .L40+24
 303 0106 1A60     		str	r2, [r3]
 180:ble_process.c ****                 PrintNum(speedRight);
 304              		.loc 1 180 0
 305 0108 C04B     		ldr	r3, .L40+28
 306 010a 1800     		movs	r0, r3
 307 010c FFF7FEFF 		bl	UART_UartPutString
 181:ble_process.c ****                 UART_UartPutCRLF(' ');
 308              		.loc 1 181 0
 309 0110 BD4B     		ldr	r3, .L40+24
 310 0112 1B68     		ldr	r3, [r3]
 311 0114 DBB2     		uxtb	r3, r3
 312 0116 1800     		movs	r0, r3
 313 0118 FFF7FEFF 		bl	PrintNum
 182:ble_process.c ****                 
 314              		.loc 1 182 0
 315 011c 2020     		movs	r0, #32
 316 011e FFF7FEFF 		bl	UART_UartPutCRLF
 184:ble_process.c ****                 
 317              		.loc 1 184 0
 318 0122 B94B     		ldr	r3, .L40+24
 319 0124 1B68     		ldr	r3, [r3]
 320 0126 1900     		movs	r1, r3
 321 0128 0120     		movs	r0, #1
 322 012a FFF7FEFF 		bl	setSpeed
 186:ble_process.c ****                 #ifdef ENABLE_ADV_DATA_COUNTER
 323              		.loc 1 186 0
 324 012e B44A     		ldr	r2, .L40+16
 325 0130 4823     		movs	r3, #72
 326 0132 FB18     		adds	r3, r7, r3
 327 0134 181D     		adds	r0, r3, #4
 328 0136 0023     		movs	r3, #0
ARM GAS  C:\Users\lesia\AppData\Local\Temp\ccLDvqSj.s 			page 17


 329 0138 0021     		movs	r1, #0
 330 013a FFF7FEFF 		bl	CyBle_GattsWriteAttributeValue
 190:ble_process.c **** 				#endif
 331              		.loc 1 190 0
 332 013e B14B     		ldr	r3, .L40+20
 333 0140 1B78     		ldrb	r3, [r3]
 334 0142 0133     		adds	r3, r3, #1
 335 0144 DAB2     		uxtb	r2, r3
 336 0146 AF4B     		ldr	r3, .L40+20
 337 0148 1A70     		strb	r2, [r3]
 201:ble_process.c **** 				
 338              		.loc 1 201 0
 339 014a AA4B     		ldr	r3, .L40+4
 340 014c 0122     		movs	r2, #1
 341 014e 1A70     		strb	r2, [r3]
 342              	.L20:
 209:ble_process.c **** 			{
 343              		.loc 1 209 0
 344 0150 4823     		movs	r3, #72
 345 0152 FB18     		adds	r3, r7, r3
 346 0154 9B89     		ldrh	r3, [r3, #12]
 347 0156 0E2B     		cmp	r3, #14
 348 0158 30D1     		bne	.L21
 213:ble_process.c **** 			{
 349              		.loc 1 213 0
 350 015a 4823     		movs	r3, #72
 351 015c FB18     		adds	r3, r7, r3
 352 015e 1B89     		ldrh	r3, [r3, #8]
 353 0160 022B     		cmp	r3, #2
 354 0162 22D1     		bne	.L22
 221:ble_process.c **** 					RGBData[RGB_GREEN_INDEX] = writeReqData.handleValPair.value.val[1];
 355              		.loc 1 221 0
 356 0164 4823     		movs	r3, #72
 357 0166 FB18     		adds	r3, r7, r3
 358 0168 5B68     		ldr	r3, [r3, #4]
 359 016a 1A78     		ldrb	r2, [r3]
 360 016c A84B     		ldr	r3, .L40+32
 361 016e 1A70     		strb	r2, [r3]
 222:ble_process.c **** 			//		RGBData[RGB_BLUE_INDEX] = writeReqData.handleValPair.value.val[2];
 362              		.loc 1 222 0
 363 0170 4823     		movs	r3, #72
 364 0172 FB18     		adds	r3, r7, r3
 365 0174 5B68     		ldr	r3, [r3, #4]
 366 0176 5A78     		ldrb	r2, [r3, #1]
 367 0178 A54B     		ldr	r3, .L40+32
 368 017a 5A70     		strb	r2, [r3, #1]
 229:ble_process.c **** 					
 369              		.loc 1 229 0
 370 017c A44B     		ldr	r3, .L40+32
 371 017e 0221     		movs	r1, #2
 372 0180 1800     		movs	r0, r3
 373 0182 FFF7FEFF 		bl	UpdateRGBled
 233:ble_process.c **** 				    
 374              		.loc 1 233 0
 375 0186 9E4A     		ldr	r2, .L40+16
 376 0188 4823     		movs	r3, #72
 377 018a FB18     		adds	r3, r7, r3
ARM GAS  C:\Users\lesia\AppData\Local\Temp\ccLDvqSj.s 			page 18


 378 018c 181D     		adds	r0, r3, #4
 379 018e 0023     		movs	r3, #0
 380 0190 0021     		movs	r1, #0
 381 0192 FFF7FEFF 		bl	CyBle_GattsWriteAttributeValue
 238:ble_process.c **** 					#endif
 382              		.loc 1 238 0
 383 0196 9B4B     		ldr	r3, .L40+20
 384 0198 1B78     		ldrb	r3, [r3]
 385 019a 0133     		adds	r3, r3, #1
 386 019c DAB2     		uxtb	r2, r3
 387 019e 994B     		ldr	r3, .L40+20
 388 01a0 1A70     		strb	r2, [r3]
 249:ble_process.c **** 					
 389              		.loc 1 249 0
 390 01a2 944B     		ldr	r3, .L40+4
 391 01a4 0122     		movs	r2, #1
 392 01a6 1A70     		strb	r2, [r3]
 393 01a8 08E0     		b	.L21
 394              	.L22:
 259:ble_process.c **** 									writeReqData.handleValPair.attrHandle, 
 395              		.loc 1 259 0
 396 01aa 4823     		movs	r3, #72
 397 01ac FB18     		adds	r3, r7, r3
 398 01ae 9B89     		ldrh	r3, [r3, #12]
 399 01b0 0D22     		movs	r2, #13
 400 01b2 1900     		movs	r1, r3
 401 01b4 1220     		movs	r0, #18
 402 01b6 FFF7FEFF 		bl	SendErrorCode
 403 01ba 7FE1     		b	.L1
 404              	.L21:
 270:ble_process.c **** 		break;
 405              		.loc 1 270 0
 406 01bc 904B     		ldr	r3, .L40+16
 407 01be 1A78     		ldrb	r2, [r3]
 408 01c0 5B78     		ldrb	r3, [r3, #1]
 409 01c2 1B02     		lsls	r3, r3, #8
 410 01c4 1A43     		orrs	r2, r3
 411 01c6 0023     		movs	r3, #0
 412 01c8 1204     		lsls	r2, r2, #16
 413 01ca 120C     		lsrs	r2, r2, #16
 414 01cc 1B0C     		lsrs	r3, r3, #16
 415 01ce 1B04     		lsls	r3, r3, #16
 416 01d0 1343     		orrs	r3, r2
 417 01d2 1800     		movs	r0, r3
 418 01d4 FFF7FEFF 		bl	CyBle_GattsWriteRsp
 271:ble_process.c **** 			   
 419              		.loc 1 271 0
 420 01d8 70E1     		b	.L1
 421              	.L8:
 276:ble_process.c **** 			{
 422              		.loc 1 276 0
 423 01da 854B     		ldr	r3, .L40
 424 01dc 1B78     		ldrb	r3, [r3]
 425 01de 022B     		cmp	r3, #2
 426 01e0 00D1     		bne	.LCB260
 427 01e2 64E1     		b	.L36	@long jump
 428              	.LCB260:
ARM GAS  C:\Users\lesia\AppData\Local\Temp\ccLDvqSj.s 			page 19


 280:ble_process.c **** 				
 429              		.loc 1 280 0
 430 01e4 2823     		movs	r3, #40
 431 01e6 FB18     		adds	r3, r7, r3
 432 01e8 3A68     		ldr	r2, [r7]
 433 01ea 13CA     		ldmia	r2!, {r0, r1, r4}
 434 01ec 13C3     		stmia	r3!, {r0, r1, r4}
 435 01ee 03CA     		ldmia	r2!, {r0, r1}
 436 01f0 03C3     		stmia	r3!, {r0, r1}
 292:ble_process.c **** 				{
 437              		.loc 1 292 0
 438 01f2 2823     		movs	r3, #40
 439 01f4 FB18     		adds	r3, r7, r3
 440 01f6 1B78     		ldrb	r3, [r3]
 441 01f8 002B     		cmp	r3, #0
 442 01fa 58D1     		bne	.L25
 296:ble_process.c **** 					{
 443              		.loc 1 296 0
 444 01fc 2823     		movs	r3, #40
 445 01fe FB18     		adds	r3, r7, r3
 446 0200 1A7A     		ldrb	r2, [r3, #8]
 447 0202 844B     		ldr	r3, .L40+36
 448 0204 DB7F     		ldrb	r3, [r3, #31]
 449 0206 9A42     		cmp	r2, r3
 450 0208 51D1     		bne	.L25
 301:ble_process.c **** 						{
 451              		.loc 1 301 0
 452 020a 2823     		movs	r3, #40
 453 020c FB18     		adds	r3, r7, r3
 454 020e DA68     		ldr	r2, [r3, #12]
 455 0210 2823     		movs	r3, #40
 456 0212 FB18     		adds	r3, r7, r3
 457 0214 1B7A     		ldrb	r3, [r3, #8]
 458 0216 023B     		subs	r3, r3, #2
 459 0218 D318     		adds	r3, r2, r3
 460 021a 1B78     		ldrb	r3, [r3]
 461 021c 012B     		cmp	r3, #1
 462 021e 46D1     		bne	.L25
 306:ble_process.c **** 							((scan_report.data[scan_report.dataLen-1] == 100) && (dataADVCounter == 0)))
 463              		.loc 1 306 0
 464 0220 2823     		movs	r3, #40
 465 0222 FB18     		adds	r3, r7, r3
 466 0224 DA68     		ldr	r2, [r3, #12]
 467 0226 2823     		movs	r3, #40
 468 0228 FB18     		adds	r3, r7, r3
 469 022a 1B7A     		ldrb	r3, [r3, #8]
 470 022c 013B     		subs	r3, r3, #1
 471 022e D318     		adds	r3, r2, r3
 472 0230 1A78     		ldrb	r2, [r3]
 473 0232 744B     		ldr	r3, .L40+20
 474 0234 1B78     		ldrb	r3, [r3]
 475 0236 9A42     		cmp	r2, r3
 476 0238 0ED3     		bcc	.L26
 307:ble_process.c **** 							{
 477              		.loc 1 307 0 discriminator 1
 478 023a 2823     		movs	r3, #40
 479 023c FB18     		adds	r3, r7, r3
ARM GAS  C:\Users\lesia\AppData\Local\Temp\ccLDvqSj.s 			page 20


 480 023e DA68     		ldr	r2, [r3, #12]
 481 0240 2823     		movs	r3, #40
 482 0242 FB18     		adds	r3, r7, r3
 483 0244 1B7A     		ldrb	r3, [r3, #8]
 484 0246 013B     		subs	r3, r3, #1
 485 0248 D318     		adds	r3, r2, r3
 486 024a 1B78     		ldrb	r3, [r3]
 306:ble_process.c **** 							((scan_report.data[scan_report.dataLen-1] == 100) && (dataADVCounter == 0)))
 487              		.loc 1 306 0 discriminator 1
 488 024c 642B     		cmp	r3, #100
 489 024e 16D1     		bne	.L27
 307:ble_process.c **** 							{
 490              		.loc 1 307 0
 491 0250 6C4B     		ldr	r3, .L40+20
 492 0252 1B78     		ldrb	r3, [r3]
 493 0254 002B     		cmp	r3, #0
 494 0256 12D1     		bne	.L27
 495              	.L26:
 310:ble_process.c **** 								/* Save the advertising peripheral address and type*/
 496              		.loc 1 310 0
 497 0258 6F4B     		ldr	r3, .L40+40
 498 025a 0122     		movs	r2, #1
 499 025c 1A70     		strb	r2, [r3]
 312:ble_process.c **** 								potential_node_bdAddrType = scan_report.peerAddrType;
 500              		.loc 1 312 0
 501 025e 2823     		movs	r3, #40
 502 0260 FB18     		adds	r3, r7, r3
 503 0262 5B68     		ldr	r3, [r3, #4]
 504 0264 6D4A     		ldr	r2, .L40+44
 505 0266 1000     		movs	r0, r2
 506 0268 1900     		movs	r1, r3
 507 026a 0623     		movs	r3, #6
 508 026c 1A00     		movs	r2, r3
 509 026e FFF7FEFF 		bl	memcpy
 313:ble_process.c **** 								
 510              		.loc 1 313 0
 511 0272 2823     		movs	r3, #40
 512 0274 FB18     		adds	r3, r7, r3
 513 0276 5A78     		ldrb	r2, [r3, #1]
 514 0278 694B     		ldr	r3, .L40+48
 515 027a 1A70     		strb	r2, [r3]
 516 027c 17E0     		b	.L25
 517              	.L27:
 328:ble_process.c **** 								
 518              		.loc 1 328 0
 519 027e 664B     		ldr	r3, .L40+40
 520 0280 0022     		movs	r2, #0
 521 0282 1A70     		strb	r2, [r3]
 330:ble_process.c **** 								
 522              		.loc 1 330 0
 523 0284 664B     		ldr	r3, .L40+48
 524 0286 0022     		movs	r2, #0
 525 0288 1A70     		strb	r2, [r3]
 332:ble_process.c **** 								potential_node_bdAddr[1] = 0x00;
 526              		.loc 1 332 0
 527 028a 644B     		ldr	r3, .L40+44
 528 028c 0022     		movs	r2, #0
ARM GAS  C:\Users\lesia\AppData\Local\Temp\ccLDvqSj.s 			page 21


 529 028e 1A70     		strb	r2, [r3]
 333:ble_process.c **** 								potential_node_bdAddr[2] = 0x00;
 530              		.loc 1 333 0
 531 0290 624B     		ldr	r3, .L40+44
 532 0292 0022     		movs	r2, #0
 533 0294 5A70     		strb	r2, [r3, #1]
 334:ble_process.c **** 								potential_node_bdAddr[3] = 0x00;
 534              		.loc 1 334 0
 535 0296 614B     		ldr	r3, .L40+44
 536 0298 0022     		movs	r2, #0
 537 029a 9A70     		strb	r2, [r3, #2]
 335:ble_process.c **** 								potential_node_bdAddr[4] = 0x00;
 538              		.loc 1 335 0
 539 029c 5F4B     		ldr	r3, .L40+44
 540 029e 0022     		movs	r2, #0
 541 02a0 DA70     		strb	r2, [r3, #3]
 336:ble_process.c **** 								potential_node_bdAddr[5] = 0x00;
 542              		.loc 1 336 0
 543 02a2 5E4B     		ldr	r3, .L40+44
 544 02a4 0022     		movs	r2, #0
 545 02a6 1A71     		strb	r2, [r3, #4]
 337:ble_process.c **** 							}
 546              		.loc 1 337 0
 547 02a8 5C4B     		ldr	r3, .L40+44
 548 02aa 0022     		movs	r2, #0
 549 02ac 5A71     		strb	r2, [r3, #5]
 550              	.L25:
 345:ble_process.c **** 				{
 551              		.loc 1 345 0
 552 02ae 2823     		movs	r3, #40
 553 02b0 FB18     		adds	r3, r7, r3
 554 02b2 1B78     		ldrb	r3, [r3]
 555 02b4 042B     		cmp	r3, #4
 556 02b6 00D0     		beq	.LCB369
 557 02b8 F9E0     		b	.L36	@long jump
 558              	.LCB369:
 349:ble_process.c **** 					{
 559              		.loc 1 349 0
 560 02ba 2823     		movs	r3, #40
 561 02bc FB18     		adds	r3, r7, r3
 562 02be 1B7A     		ldrb	r3, [r3, #8]
 563 02c0 142B     		cmp	r3, #20
 564 02c2 00D0     		beq	.LCB374
 565 02c4 F3E0     		b	.L36	@long jump
 566              	.LCB374:
 355:ble_process.c **** 						{
 567              		.loc 1 355 0
 568 02c6 544B     		ldr	r3, .L40+40
 569 02c8 1B78     		ldrb	r3, [r3]
 570 02ca 002B     		cmp	r3, #0
 571 02cc 00D1     		bne	.LCB378
 572 02ce EEE0     		b	.L36	@long jump
 573              	.LCB378:
 358:ble_process.c **** 								&& (potential_node_bdAddrType == scan_report.peerAddrType))
 574              		.loc 1 358 0
 575 02d0 2823     		movs	r3, #40
 576 02d2 FB18     		adds	r3, r7, r3
ARM GAS  C:\Users\lesia\AppData\Local\Temp\ccLDvqSj.s 			page 22


 577 02d4 5B68     		ldr	r3, [r3, #4]
 578 02d6 5149     		ldr	r1, .L40+44
 579 02d8 0622     		movs	r2, #6
 580 02da 1800     		movs	r0, r3
 581 02dc FFF7FEFF 		bl	memcmp
 582 02e0 031E     		subs	r3, r0, #0
 583 02e2 00D0     		beq	.LCB388
 584 02e4 E3E0     		b	.L36	@long jump
 585              	.LCB388:
 359:ble_process.c **** 							{
 586              		.loc 1 359 0
 587 02e6 2823     		movs	r3, #40
 588 02e8 FB18     		adds	r3, r7, r3
 589 02ea 5A78     		ldrb	r2, [r3, #1]
 590 02ec 4C4B     		ldr	r3, .L40+48
 591 02ee 1B78     		ldrb	r3, [r3]
 592 02f0 9A42     		cmp	r2, r3
 593 02f2 00D0     		beq	.LCB395
 594 02f4 DBE0     		b	.L36	@long jump
 595              	.LCB395:
 364:ble_process.c **** 								{
 596              		.loc 1 364 0
 597 02f6 2823     		movs	r3, #40
 598 02f8 FB18     		adds	r3, r7, r3
 599 02fa D868     		ldr	r0, [r3, #12]
 600 02fc 2823     		movs	r3, #40
 601 02fe FB18     		adds	r3, r7, r3
 602 0300 1B7A     		ldrb	r3, [r3, #8]
 603 0302 1A00     		movs	r2, r3
 604 0304 474B     		ldr	r3, .L40+52
 605 0306 1900     		movs	r1, r3
 606 0308 FFF7FEFF 		bl	memcmp
 607 030c 031E     		subs	r3, r0, #0
 608 030e 00D0     		beq	.LCB408
 609 0310 CDE0     		b	.L36	@long jump
 610              	.LCB408:
 367:ble_process.c ****                                     PrintHex(scan_report.dataLen);
 611              		.loc 1 367 0
 612 0312 454B     		ldr	r3, .L40+56
 613 0314 1800     		movs	r0, r3
 614 0316 FFF7FEFF 		bl	UART_UartPutString
 368:ble_process.c **** 									UART_UartPutCRLF(' ');
 615              		.loc 1 368 0
 616 031a 2823     		movs	r3, #40
 617 031c FB18     		adds	r3, r7, r3
 618 031e 1B7A     		ldrb	r3, [r3, #8]
 619 0320 1800     		movs	r0, r3
 620 0322 FFF7FEFF 		bl	PrintHex
 369:ble_process.c **** 								//	#endif
 621              		.loc 1 369 0
 622 0326 2020     		movs	r0, #32
 623 0328 FFF7FEFF 		bl	UART_UartPutCRLF
 372:ble_process.c **** 								//	#ifdef DEBUG_ENABLED
 624              		.loc 1 372 0
 625 032c FFF7FEFF 		bl	CyBle_GapcStopScan
 374:ble_process.c **** 									UART_UartPutCRLF(' ');
 626              		.loc 1 374 0
ARM GAS  C:\Users\lesia\AppData\Local\Temp\ccLDvqSj.s 			page 23


 627 0330 3E4B     		ldr	r3, .L40+60
 628 0332 1800     		movs	r0, r3
 629 0334 FFF7FEFF 		bl	UART_UartPutString
 375:ble_process.c **** 								//	#endif
 630              		.loc 1 375 0
 631 0338 2020     		movs	r0, #32
 632 033a FFF7FEFF 		bl	UART_UartPutCRLF
 379:ble_process.c **** 									peripAddr.bdAddr[0] = scan_report.peerBdAddr[0];
 633              		.loc 1 379 0
 634 033e 2823     		movs	r3, #40
 635 0340 FB18     		adds	r3, r7, r3
 636 0342 5A78     		ldrb	r2, [r3, #1]
 637 0344 3A4B     		ldr	r3, .L40+64
 638 0346 9A71     		strb	r2, [r3, #6]
 380:ble_process.c **** 									peripAddr.bdAddr[1] = scan_report.peerBdAddr[1];
 639              		.loc 1 380 0
 640 0348 2823     		movs	r3, #40
 641 034a FB18     		adds	r3, r7, r3
 642 034c 5B68     		ldr	r3, [r3, #4]
 643 034e 1A78     		ldrb	r2, [r3]
 644 0350 374B     		ldr	r3, .L40+64
 645 0352 1A70     		strb	r2, [r3]
 381:ble_process.c **** 									peripAddr.bdAddr[2] = scan_report.peerBdAddr[2];
 646              		.loc 1 381 0
 647 0354 2823     		movs	r3, #40
 648 0356 FB18     		adds	r3, r7, r3
 649 0358 5B68     		ldr	r3, [r3, #4]
 650 035a 5A78     		ldrb	r2, [r3, #1]
 651 035c 344B     		ldr	r3, .L40+64
 652 035e 5A70     		strb	r2, [r3, #1]
 382:ble_process.c **** 									peripAddr.bdAddr[3] = scan_report.peerBdAddr[3];
 653              		.loc 1 382 0
 654 0360 2823     		movs	r3, #40
 655 0362 FB18     		adds	r3, r7, r3
 656 0364 5B68     		ldr	r3, [r3, #4]
 657 0366 9A78     		ldrb	r2, [r3, #2]
 658 0368 314B     		ldr	r3, .L40+64
 659 036a 9A70     		strb	r2, [r3, #2]
 383:ble_process.c **** 									peripAddr.bdAddr[4] = scan_report.peerBdAddr[4];
 660              		.loc 1 383 0
 661 036c 2823     		movs	r3, #40
 662 036e FB18     		adds	r3, r7, r3
 663 0370 5B68     		ldr	r3, [r3, #4]
 664 0372 DA78     		ldrb	r2, [r3, #3]
 665 0374 2E4B     		ldr	r3, .L40+64
 666 0376 DA70     		strb	r2, [r3, #3]
 384:ble_process.c **** 									peripAddr.bdAddr[5] = scan_report.peerBdAddr[5];
 667              		.loc 1 384 0
 668 0378 2823     		movs	r3, #40
 669 037a FB18     		adds	r3, r7, r3
 670 037c 5B68     		ldr	r3, [r3, #4]
 671 037e 1A79     		ldrb	r2, [r3, #4]
 672 0380 2B4B     		ldr	r3, .L40+64
 673 0382 1A71     		strb	r2, [r3, #4]
 385:ble_process.c **** 
 674              		.loc 1 385 0
 675 0384 2823     		movs	r3, #40
ARM GAS  C:\Users\lesia\AppData\Local\Temp\ccLDvqSj.s 			page 24


 676 0386 FB18     		adds	r3, r7, r3
 677 0388 5B68     		ldr	r3, [r3, #4]
 678 038a 5A79     		ldrb	r2, [r3, #5]
 679 038c 284B     		ldr	r3, .L40+64
 680 038e 5A71     		strb	r2, [r3, #5]
 389:ble_process.c **** 									
 681              		.loc 1 389 0
 682 0390 284B     		ldr	r3, .L40+68
 683 0392 0122     		movs	r2, #1
 684 0394 1A70     		strb	r2, [r3]
 393:ble_process.c **** 									#endif
 685              		.loc 1 393 0
 686 0396 204B     		ldr	r3, .L40+40
 687 0398 0022     		movs	r2, #0
 688 039a 1A70     		strb	r2, [r3]
 404:ble_process.c **** 			
 689              		.loc 1 404 0
 690 039c 87E0     		b	.L36
 691              	.L9:
 408:ble_process.c **** 			{
 692              		.loc 1 408 0
 693 039e 264B     		ldr	r3, .L40+72
 694 03a0 1B78     		ldrb	r3, [r3]
 695 03a2 022B     		cmp	r3, #2
 696 03a4 00D0     		beq	.LCB479
 697 03a6 84E0     		b	.L37	@long jump
 698              	.LCB479:
 424:ble_process.c **** 					
 699              		.loc 1 424 0
 700 03a8 244B     		ldr	r3, .L40+76
 701 03aa 0122     		movs	r2, #1
 702 03ac 1A70     		strb	r2, [r3]
 432:ble_process.c ****         			writeRGBdata.value.val = RGBData;
 703              		.loc 1 432 0
 704 03ae 0C23     		movs	r3, #12
 705 03b0 FB18     		adds	r3, r7, r3
 706 03b2 0E22     		movs	r2, #14
 707 03b4 1A81     		strh	r2, [r3, #8]
 433:ble_process.c ****         			writeRGBdata.value.len = RGB_LED_DATA_LEN;
 708              		.loc 1 433 0
 709 03b6 0C23     		movs	r3, #12
 710 03b8 FB18     		adds	r3, r7, r3
 711 03ba 154A     		ldr	r2, .L40+32
 712 03bc 1A60     		str	r2, [r3]
 434:ble_process.c ****         			CyBle_GattcWriteCharacteristicValue(cyBle_connHandle, &writeRGBdata);
 713              		.loc 1 434 0
 714 03be 0C23     		movs	r3, #12
 715 03c0 FB18     		adds	r3, r7, r3
 716 03c2 0222     		movs	r2, #2
 717 03c4 9A80     		strh	r2, [r3, #4]
 435:ble_process.c ****                     
 718              		.loc 1 435 0
 719 03c6 0C23     		movs	r3, #12
 720 03c8 F918     		adds	r1, r7, r3
 721 03ca 0D4B     		ldr	r3, .L40+16
 722 03cc 1A78     		ldrb	r2, [r3]
 723 03ce 5B78     		ldrb	r3, [r3, #1]
ARM GAS  C:\Users\lesia\AppData\Local\Temp\ccLDvqSj.s 			page 25


 724 03d0 1B02     		lsls	r3, r3, #8
 725 03d2 1A43     		orrs	r2, r3
 726 03d4 0023     		movs	r3, #0
 727 03d6 1204     		lsls	r2, r2, #16
 728 03d8 120C     		lsrs	r2, r2, #16
 729 03da 1B0C     		lsrs	r3, r3, #16
 730 03dc 1B04     		lsls	r3, r3, #16
 731 03de 1343     		orrs	r3, r2
 732 03e0 1800     		movs	r0, r3
 733 03e2 FFF7FEFF 		bl	CyBle_GattcWriteCharacteristicValue
 450:ble_process.c **** 			
 734              		.loc 1 450 0
 735 03e6 64E0     		b	.L37
 736              	.L16:
 454:ble_process.c ****             
 737              		.loc 1 454 0
 738 03e8 0020     		movs	r0, #0
 739 03ea FFF7FEFF 		bl	CyBle_GappStartAdvertisement
 476:ble_process.c **** 			
 740              		.loc 1 476 0
 741 03ee 65E0     		b	.L1
 742              	.L41:
 743              		.align	2
 744              	.L40:
 745 03f0 00000000 		.word	cyBle_state
 746 03f4 00000000 		.word	switch_Role
 747 03f8 00000000 		.word	speedLeft
 748 03fc 00000000 		.word	.LC3
 749 0400 00000000 		.word	cyBle_connHandle
 750 0404 00000000 		.word	dataADVCounter
 751 0408 00000000 		.word	speedRight
 752 040c 0C000000 		.word	.LC8
 753 0410 00000000 		.word	RGBData
 754 0414 00000000 		.word	new_advData
 755 0418 00000000 		.word	potential_node_found
 756 041c 00000000 		.word	potential_node_bdAddr
 757 0420 00000000 		.word	potential_node_bdAddrType
 758 0424 00000000 		.word	scan_tag
 759 0428 18000000 		.word	.LC16
 760 042c 28000000 		.word	.LC18
 761 0430 00000000 		.word	peripAddr
 762 0434 00000000 		.word	clientConnectToDevice
 763 0438 00000000 		.word	ble_gap_state
 764 043c 00000000 		.word	deviceConnected
 765              	.L15:
 489:ble_process.c **** 			{
 766              		.loc 1 489 0
 767 0440 204B     		ldr	r3, .L42
 768 0442 1B78     		ldrb	r3, [r3]
 769 0444 002B     		cmp	r3, #0
 770 0446 36D0     		beq	.L38
 491:ble_process.c **** 				
 771              		.loc 1 491 0
 772 0448 1E4B     		ldr	r3, .L42
 773 044a 1B78     		ldrb	r3, [r3]
 774 044c 1800     		movs	r0, r3
 775 044e FFF7FEFF 		bl	CyBle_GapDisconnect
ARM GAS  C:\Users\lesia\AppData\Local\Temp\ccLDvqSj.s 			page 26


 493:ble_process.c **** 				#ifdef DEBUG_ENABLED
 776              		.loc 1 493 0
 777 0452 1D4B     		ldr	r3, .L42+4
 778 0454 0122     		movs	r2, #1
 779 0456 1A70     		strb	r2, [r3]
 500:ble_process.c **** 
 780              		.loc 1 500 0
 781 0458 2DE0     		b	.L38
 782              	.L10:
 505:ble_process.c **** 			
 783              		.loc 1 505 0
 784 045a 1C4B     		ldr	r3, .L42+8
 785 045c 0022     		movs	r2, #0
 786 045e 1A70     		strb	r2, [r3]
 513:ble_process.c **** 			{
 787              		.loc 1 513 0
 788 0460 1B4B     		ldr	r3, .L42+12
 789 0462 1B78     		ldrb	r3, [r3]
 790 0464 012B     		cmp	r3, #1
 791 0466 0BD1     		bne	.L30
 513:ble_process.c **** 			{
 792              		.loc 1 513 0 is_stmt 0 discriminator 1
 793 0468 1A4B     		ldr	r3, .L42+16
 794 046a 1B78     		ldrb	r3, [r3]
 795 046c 012B     		cmp	r3, #1
 796 046e 07D0     		beq	.L30
 517:ble_process.c **** 				{
 797              		.loc 1 517 0 is_stmt 1
 798 0470 194B     		ldr	r3, .L42+20
 799 0472 1B78     		ldrb	r3, [r3]
 800 0474 062B     		cmp	r3, #6
 801 0476 13D1     		bne	.L32
 519:ble_process.c **** 					#ifdef DEBUG_ENABLED
 802              		.loc 1 519 0
 803 0478 0020     		movs	r0, #0
 804 047a FFF7FEFF 		bl	CyBle_GappStartAdvertisement
 517:ble_process.c **** 				{
 805              		.loc 1 517 0
 806 047e 0FE0     		b	.L32
 807              	.L30:
 527:ble_process.c **** 			{
 808              		.loc 1 527 0
 809 0480 134B     		ldr	r3, .L42+12
 810 0482 1B78     		ldrb	r3, [r3]
 811 0484 022B     		cmp	r3, #2
 812 0486 18D1     		bne	.L39
 527:ble_process.c **** 			{
 813              		.loc 1 527 0 is_stmt 0 discriminator 1
 814 0488 124B     		ldr	r3, .L42+16
 815 048a 1B78     		ldrb	r3, [r3]
 816 048c 012B     		cmp	r3, #1
 817 048e 14D0     		beq	.L39
 531:ble_process.c **** 				{
 818              		.loc 1 531 0 is_stmt 1
 819 0490 114B     		ldr	r3, .L42+20
 820 0492 1B78     		ldrb	r3, [r3]
 821 0494 062B     		cmp	r3, #6
ARM GAS  C:\Users\lesia\AppData\Local\Temp\ccLDvqSj.s 			page 27


 822 0496 10D1     		bne	.L39
 533:ble_process.c **** 					#ifdef DEBUG_ENABLED
 823              		.loc 1 533 0
 824 0498 0020     		movs	r0, #0
 825 049a FFF7FEFF 		bl	CyBle_GapcStartScan
 541:ble_process.c **** 			
 826              		.loc 1 541 0
 827 049e 0CE0     		b	.L39
 828              	.L32:
 541:ble_process.c **** 			
 829              		.loc 1 541 0 is_stmt 0 discriminator 7
 830 04a0 0BE0     		b	.L39
 831              	.L33:
 116:ble_process.c **** 			
 832              		.loc 1 116 0 is_stmt 1
 833 04a2 C046     		nop
 834 04a4 0AE0     		b	.L1
 835              	.L34:
 135:ble_process.c **** 			
 836              		.loc 1 135 0
 837 04a6 C046     		nop
 838 04a8 08E0     		b	.L1
 839              	.L35:
 107:ble_process.c **** 			
 840              		.loc 1 107 0
 841 04aa C046     		nop
 842 04ac 06E0     		b	.L1
 843              	.L36:
 404:ble_process.c **** 			
 844              		.loc 1 404 0
 845 04ae C046     		nop
 846 04b0 04E0     		b	.L1
 847              	.L37:
 450:ble_process.c **** 			
 848              		.loc 1 450 0
 849 04b2 C046     		nop
 850 04b4 02E0     		b	.L1
 851              	.L38:
 500:ble_process.c **** 
 852              		.loc 1 500 0
 853 04b6 C046     		nop
 854 04b8 00E0     		b	.L1
 855              	.L39:
 541:ble_process.c **** 			
 856              		.loc 1 541 0
 857 04ba C046     		nop
 858              	.L1:
 546:ble_process.c **** 	}
 547:ble_process.c **** }
 859              		.loc 1 547 0
 860 04bc BD46     		mov	sp, r7
 861 04be 17B0     		add	sp, sp, #92
 862              		@ sp needed
 863 04c0 90BD     		pop	{r4, r7, pc}
 864              	.L43:
 865 04c2 C046     		.align	2
 866              	.L42:
ARM GAS  C:\Users\lesia\AppData\Local\Temp\ccLDvqSj.s 			page 28


 867 04c4 00000000 		.word	cyBle_connHandle
 868 04c8 00000000 		.word	restartScanning
 869 04cc 00000000 		.word	deviceConnected
 870 04d0 00000000 		.word	ble_gap_state
 871 04d4 00000000 		.word	switch_Role
 872 04d8 00000000 		.word	cyBle_state
 873              		.cfi_endproc
 874              	.LFE35:
 875              		.size	GenericEventHandler, .-GenericEventHandler
 876              		.section	.text.SwitchRole,"ax",%progbits
 877              		.align	2
 878              		.global	SwitchRole
 879              		.code	16
 880              		.thumb_func
 881              		.type	SwitchRole, %function
 882              	SwitchRole:
 883              	.LFB36:
 548:ble_process.c **** 
 549:ble_process.c **** /*******************************************************************************
 550:ble_process.c **** * Function Name: SwitchRole
 551:ble_process.c **** ********************************************************************************
 552:ble_process.c **** * Summary:
 553:ble_process.c **** *        This function switches the role between Central and Peripheral. If device 
 554:ble_process.c **** * is connected while switching role, then it is first disconnected.
 555:ble_process.c **** *
 556:ble_process.c **** * Parameters:
 557:ble_process.c **** *  void
 558:ble_process.c **** *
 559:ble_process.c **** * Return:
 560:ble_process.c **** *  void
 561:ble_process.c **** *
 562:ble_process.c **** *******************************************************************************/
 563:ble_process.c **** void SwitchRole(void)
 564:ble_process.c **** {
 884              		.loc 1 564 0
 885              		.cfi_startproc
 886              		@ args = 0, pretend = 0, frame = 8
 887              		@ frame_needed = 1, uses_anonymous_args = 0
 888 0000 90B5     		push	{r4, r7, lr}
 889              		.cfi_def_cfa_offset 12
 890              		.cfi_offset 4, -12
 891              		.cfi_offset 7, -8
 892              		.cfi_offset 14, -4
 893 0002 83B0     		sub	sp, sp, #12
 894              		.cfi_def_cfa_offset 24
 895 0004 00AF     		add	r7, sp, #0
 896              		.cfi_def_cfa_register 7
 565:ble_process.c **** 	CYBLE_API_RESULT_T  apiResult;
 566:ble_process.c **** 	
 567:ble_process.c **** 	/* if the switch role flag is set... */
 568:ble_process.c **** 	if(switch_Role == TRUE)
 897              		.loc 1 568 0
 898 0006 3A4B     		ldr	r3, .L57
 899 0008 1B78     		ldrb	r3, [r3]
 900 000a 012B     		cmp	r3, #1
 901 000c 00D0     		beq	.LCB673
 902 000e 6BE0     		b	.L56	@long jump
ARM GAS  C:\Users\lesia\AppData\Local\Temp\ccLDvqSj.s 			page 29


 903              	.LCB673:
 569:ble_process.c **** 	{	
 570:ble_process.c **** 		/* Process pending BLE events */
 571:ble_process.c **** 		CyBle_ProcessEvents();
 904              		.loc 1 571 0
 905 0010 FFF7FEFF 		bl	CyBle_ProcessEvents
 572:ble_process.c **** 		
 573:ble_process.c **** 		/* If there is an existing connection, then disconnect before switching
 574:ble_process.c **** 		* role. */
 575:ble_process.c **** 		if((cyBle_connHandle.bdHandle != 0))
 906              		.loc 1 575 0
 907 0014 374B     		ldr	r3, .L57+4
 908 0016 1B78     		ldrb	r3, [r3]
 909 0018 002B     		cmp	r3, #0
 910 001a 06D0     		beq	.L46
 576:ble_process.c **** 		{
 577:ble_process.c **** 			/* Disconnect the device and process the event */
 578:ble_process.c **** 			CyBle_GapDisconnect(cyBle_connHandle.bdHandle);
 911              		.loc 1 578 0
 912 001c 354B     		ldr	r3, .L57+4
 913 001e 1B78     		ldrb	r3, [r3]
 914 0020 1800     		movs	r0, r3
 915 0022 FFF7FEFF 		bl	CyBle_GapDisconnect
 579:ble_process.c **** 			CyBle_ProcessEvents();
 916              		.loc 1 579 0
 917 0026 FFF7FEFF 		bl	CyBle_ProcessEvents
 918              	.L46:
 580:ble_process.c **** 			#ifdef DEBUG_ENABLED
 581:ble_process.c **** 			UART_UartPutString("Peripheral closed connection ");
 582:ble_process.c **** 			SendBLEStatetoUART(CyBle_GetState());
 583:ble_process.c **** 			UART_UartPutCRLF(' ');
 584:ble_process.c **** 			#endif
 585:ble_process.c **** 		}		
 586:ble_process.c **** 		
 587:ble_process.c **** 		switch(ble_gap_state)
 919              		.loc 1 587 0
 920 002a 334B     		ldr	r3, .L57+8
 921 002c 1B78     		ldrb	r3, [r3]
 922 002e 012B     		cmp	r3, #1
 923 0030 02D0     		beq	.L48
 924 0032 022B     		cmp	r3, #2
 925 0034 28D0     		beq	.L49
 588:ble_process.c **** 		{
 589:ble_process.c **** 			case BLE_PERIPHERAL:
 590:ble_process.c **** 				/* If the current role is Peripheral and system is advertising,
 591:ble_process.c **** 				* then stop advertisement before switching role */
 592:ble_process.c **** 				if(CyBle_GetState() == CYBLE_STATE_ADVERTISING)
 593:ble_process.c **** 				{
 594:ble_process.c **** 					CyBle_GappStopAdvertisement();
 595:ble_process.c **** 					CyBle_ProcessEvents();
 596:ble_process.c **** 
 597:ble_process.c **** 					#ifdef DEBUG_ENABLED
 598:ble_process.c **** 						UART_UartPutString("Peripheral Advertisment Stopped ");
 599:ble_process.c **** 						SendBLEStatetoUART(CyBle_GetState());
 600:ble_process.c **** 						UART_UartPutCRLF(' ');
 601:ble_process.c **** 					#endif
 602:ble_process.c **** 				}
ARM GAS  C:\Users\lesia\AppData\Local\Temp\ccLDvqSj.s 			page 30


 603:ble_process.c **** 				
 604:ble_process.c **** 				if(CyBle_GetState() == CYBLE_STATE_DISCONNECTED)
 605:ble_process.c **** 				{
 606:ble_process.c **** 					/* Switch BLE role by starting scan. This way, the system is set
 607:ble_process.c **** 					* to Central role */
 608:ble_process.c **** 					apiResult = CyBle_GapcStartScan(CYBLE_SCANNING_FAST);
 609:ble_process.c **** 					
 610:ble_process.c **** 					if(CYBLE_ERROR_OK == apiResult)
 611:ble_process.c **** 					{
 612:ble_process.c **** 						#ifdef DEBUG_ENABLED
 613:ble_process.c **** 						UART_UartPutString("Start Scan API called ");
 614:ble_process.c **** 						SendBLEStatetoUART(CyBle_GetState());
 615:ble_process.c **** 						UART_UartPutCRLF(' ');
 616:ble_process.c **** 						#endif
 617:ble_process.c **** 						
 618:ble_process.c **** 						/* Record the time at which Central role was started. This will be 
 619:ble_process.c **** 						* used for timeout and switching to Peripheral operation*/
 620:ble_process.c **** 						centralStartedTime = WatchDog_CurrentCount();
 621:ble_process.c **** 						
 622:ble_process.c **** 						/* Update the current BLE role to Central */
 623:ble_process.c **** 						ble_gap_state = BLE_CENTRAL;
 624:ble_process.c **** 						
 625:ble_process.c **** 						/* Reset the switch role flag*/
 626:ble_process.c **** 						switch_Role = FALSE;
 627:ble_process.c **** 					}
 628:ble_process.c **** 					else
 629:ble_process.c **** 					{
 630:ble_process.c **** 						/* If scanning did not start, maintain the current role and retry later */
 631:ble_process.c **** 						ble_gap_state = BLE_PERIPHERAL;
 632:ble_process.c **** 						
 633:ble_process.c **** 						#ifdef DEBUG_ENABLED
 634:ble_process.c **** 						UART_UartPutString("Start Scan API failed ");
 635:ble_process.c **** 						SendBLEStatetoUART(CyBle_GetState());
 636:ble_process.c **** 						UART_UartPutCRLF(' ');
 637:ble_process.c **** 						#endif
 638:ble_process.c **** 					}
 639:ble_process.c **** 				}
 640:ble_process.c **** 				
 641:ble_process.c **** 				/* Process Pending BLE Events */
 642:ble_process.c **** 				CyBle_ProcessEvents();
 643:ble_process.c **** 				
 644:ble_process.c **** 			break;
 645:ble_process.c **** 			
 646:ble_process.c **** 			case BLE_CENTRAL:
 647:ble_process.c **** 				/* If the current role is Central and system is scanning,
 648:ble_process.c **** 				* then stop scanning before switching role */
 649:ble_process.c **** 				if(CyBle_GetState() == CYBLE_STATE_SCANNING)
 650:ble_process.c **** 				{
 651:ble_process.c **** 					CyBle_GapcStopScan();
 652:ble_process.c **** 					CyBle_ProcessEvents();
 653:ble_process.c **** 					
 654:ble_process.c **** 					#ifdef DEBUG_ENABLED
 655:ble_process.c **** 						UART_UartPutString("Central Scan stopped ");
 656:ble_process.c **** 						UART_UartPutCRLF(' ');
 657:ble_process.c **** 					#endif
 658:ble_process.c **** 				}
 659:ble_process.c **** 				
ARM GAS  C:\Users\lesia\AppData\Local\Temp\ccLDvqSj.s 			page 31


 660:ble_process.c **** 				if(CyBle_GetState() == CYBLE_STATE_DISCONNECTED)
 661:ble_process.c **** 				{
 662:ble_process.c **** 					#ifdef ENABLE_ADV_DATA_COUNTER
 663:ble_process.c **** 					/* Increment data counter */
 664:ble_process.c **** 					new_advData.advData[new_advData.advDataLen - 1] = dataADVCounter;
 665:ble_process.c **** 					
 666:ble_process.c **** 					cyBle_discoveryModeInfo.advData = &new_advData;
 667:ble_process.c **** 					
 668:ble_process.c **** 					#ifdef DEBUG_ENABLED
 669:ble_process.c **** 						UART_UartPutString("Updated ADV data = ");
 670:ble_process.c **** 						PrintNum(dataADVCounter);
 671:ble_process.c **** 						UART_UartPutCRLF(' ');
 672:ble_process.c **** 					#endif
 673:ble_process.c **** 					#endif
 674:ble_process.c **** 					
 675:ble_process.c **** 					/* Switch BLE role by starting advertisement. This way, the system is 
 676:ble_process.c **** 					* set to Peripheral role */
 677:ble_process.c **** 					apiResult = CyBle_GappStartAdvertisement(CYBLE_ADVERTISING_FAST);
 678:ble_process.c **** 					
 679:ble_process.c **** 					if(apiResult == CYBLE_ERROR_OK)
 680:ble_process.c **** 					{
 681:ble_process.c **** 						/* If advertisement started successfully, set the BLE state and
 682:ble_process.c **** 						* reset the switch role flag*/
 683:ble_process.c **** 						ble_gap_state = BLE_PERIPHERAL;
 684:ble_process.c **** 						clientConnectToDevice = FALSE;	
 685:ble_process.c **** 						switch_Role = FALSE;
 686:ble_process.c **** 						
 687:ble_process.c **** 						#ifdef DEBUG_ENABLED
 688:ble_process.c **** 						UART_UartPutString("Peripheral Advertisment called ");
 689:ble_process.c **** 						SendBLEStatetoUART(CyBle_GetState());
 690:ble_process.c **** 						UART_UartPutCRLF(' ');
 691:ble_process.c **** 						#endif
 692:ble_process.c **** 					}
 693:ble_process.c **** 					else
 694:ble_process.c **** 					{
 695:ble_process.c **** 						/* If advertisement did not start, maintain the current role and retry later */
 696:ble_process.c **** 						ble_gap_state = BLE_CENTRAL;
 697:ble_process.c **** 						
 698:ble_process.c **** 						#ifdef DEBUG_ENABLED
 699:ble_process.c **** 						UART_UartPutString("Start Peripheral Advertisment Failed ");
 700:ble_process.c **** 						SendBLEStatetoUART(CyBle_GetState());
 701:ble_process.c **** 						UART_UartPutCRLF(' ');
 702:ble_process.c **** 						#endif					
 703:ble_process.c **** 					}
 704:ble_process.c **** 				}
 705:ble_process.c **** 				
 706:ble_process.c **** 				/* Process Pending BLE Events */
 707:ble_process.c **** 				CyBle_ProcessEvents();
 708:ble_process.c **** 			break;
 709:ble_process.c **** 			
 710:ble_process.c **** 			default:
 711:ble_process.c **** 			
 712:ble_process.c **** 			break;
 926              		.loc 1 712 0
 927 0036 57E0     		b	.L45
 928              	.L48:
 592:ble_process.c **** 				{
ARM GAS  C:\Users\lesia\AppData\Local\Temp\ccLDvqSj.s 			page 32


 929              		.loc 1 592 0
 930 0038 304B     		ldr	r3, .L57+12
 931 003a 1B78     		ldrb	r3, [r3]
 932 003c 032B     		cmp	r3, #3
 933 003e 03D1     		bne	.L50
 594:ble_process.c **** 					CyBle_ProcessEvents();
 934              		.loc 1 594 0
 935 0040 FFF7FEFF 		bl	CyBle_GappStopAdvertisement
 595:ble_process.c **** 
 936              		.loc 1 595 0
 937 0044 FFF7FEFF 		bl	CyBle_ProcessEvents
 938              	.L50:
 604:ble_process.c **** 				{
 939              		.loc 1 604 0
 940 0048 2C4B     		ldr	r3, .L57+12
 941 004a 1B78     		ldrb	r3, [r3]
 942 004c 062B     		cmp	r3, #6
 943 004e 18D1     		bne	.L51
 608:ble_process.c **** 					
 944              		.loc 1 608 0
 945 0050 BC1D     		adds	r4, r7, #6
 946 0052 0020     		movs	r0, #0
 947 0054 FFF7FEFF 		bl	CyBle_GapcStartScan
 948 0058 0300     		movs	r3, r0
 949 005a 2380     		strh	r3, [r4]
 610:ble_process.c **** 					{
 950              		.loc 1 610 0
 951 005c BB1D     		adds	r3, r7, #6
 952 005e 1B88     		ldrh	r3, [r3]
 953 0060 002B     		cmp	r3, #0
 954 0062 0BD1     		bne	.L52
 620:ble_process.c **** 						
 955              		.loc 1 620 0
 956 0064 264B     		ldr	r3, .L57+16
 957 0066 1B88     		ldrh	r3, [r3]
 958 0068 9AB2     		uxth	r2, r3
 959 006a 264B     		ldr	r3, .L57+20
 960 006c 1A80     		strh	r2, [r3]
 623:ble_process.c **** 						
 961              		.loc 1 623 0
 962 006e 224B     		ldr	r3, .L57+8
 963 0070 0222     		movs	r2, #2
 964 0072 1A70     		strb	r2, [r3]
 626:ble_process.c **** 					}
 965              		.loc 1 626 0
 966 0074 1E4B     		ldr	r3, .L57
 967 0076 0022     		movs	r2, #0
 968 0078 1A70     		strb	r2, [r3]
 969 007a 02E0     		b	.L51
 970              	.L52:
 631:ble_process.c **** 						
 971              		.loc 1 631 0
 972 007c 1E4B     		ldr	r3, .L57+8
 973 007e 0122     		movs	r2, #1
 974 0080 1A70     		strb	r2, [r3]
 975              	.L51:
 642:ble_process.c **** 				
ARM GAS  C:\Users\lesia\AppData\Local\Temp\ccLDvqSj.s 			page 33


 976              		.loc 1 642 0
 977 0082 FFF7FEFF 		bl	CyBle_ProcessEvents
 644:ble_process.c **** 			
 978              		.loc 1 644 0
 979 0086 2FE0     		b	.L45
 980              	.L49:
 649:ble_process.c **** 				{
 981              		.loc 1 649 0
 982 0088 1C4B     		ldr	r3, .L57+12
 983 008a 1B78     		ldrb	r3, [r3]
 984 008c 042B     		cmp	r3, #4
 985 008e 03D1     		bne	.L53
 651:ble_process.c **** 					CyBle_ProcessEvents();
 986              		.loc 1 651 0
 987 0090 FFF7FEFF 		bl	CyBle_GapcStopScan
 652:ble_process.c **** 					
 988              		.loc 1 652 0
 989 0094 FFF7FEFF 		bl	CyBle_ProcessEvents
 990              	.L53:
 660:ble_process.c **** 				{
 991              		.loc 1 660 0
 992 0098 184B     		ldr	r3, .L57+12
 993 009a 1B78     		ldrb	r3, [r3]
 994 009c 062B     		cmp	r3, #6
 995 009e 20D1     		bne	.L54
 664:ble_process.c **** 					
 996              		.loc 1 664 0
 997 00a0 194B     		ldr	r3, .L57+24
 998 00a2 DB7F     		ldrb	r3, [r3, #31]
 999 00a4 013B     		subs	r3, r3, #1
 1000 00a6 194A     		ldr	r2, .L57+28
 1001 00a8 1178     		ldrb	r1, [r2]
 1002 00aa 174A     		ldr	r2, .L57+24
 1003 00ac D154     		strb	r1, [r2, r3]
 666:ble_process.c **** 					
 1004              		.loc 1 666 0
 1005 00ae 184B     		ldr	r3, .L57+32
 1006 00b0 154A     		ldr	r2, .L57+24
 1007 00b2 9A60     		str	r2, [r3, #8]
 677:ble_process.c **** 					
 1008              		.loc 1 677 0
 1009 00b4 BC1D     		adds	r4, r7, #6
 1010 00b6 0020     		movs	r0, #0
 1011 00b8 FFF7FEFF 		bl	CyBle_GappStartAdvertisement
 1012 00bc 0300     		movs	r3, r0
 1013 00be 2380     		strh	r3, [r4]
 679:ble_process.c **** 					{
 1014              		.loc 1 679 0
 1015 00c0 BB1D     		adds	r3, r7, #6
 1016 00c2 1B88     		ldrh	r3, [r3]
 1017 00c4 002B     		cmp	r3, #0
 1018 00c6 09D1     		bne	.L55
 683:ble_process.c **** 						clientConnectToDevice = FALSE;	
 1019              		.loc 1 683 0
 1020 00c8 0B4B     		ldr	r3, .L57+8
 1021 00ca 0122     		movs	r2, #1
 1022 00cc 1A70     		strb	r2, [r3]
ARM GAS  C:\Users\lesia\AppData\Local\Temp\ccLDvqSj.s 			page 34


 684:ble_process.c **** 						switch_Role = FALSE;
 1023              		.loc 1 684 0
 1024 00ce 114B     		ldr	r3, .L57+36
 1025 00d0 0022     		movs	r2, #0
 1026 00d2 1A70     		strb	r2, [r3]
 685:ble_process.c **** 						
 1027              		.loc 1 685 0
 1028 00d4 064B     		ldr	r3, .L57
 1029 00d6 0022     		movs	r2, #0
 1030 00d8 1A70     		strb	r2, [r3]
 1031 00da 02E0     		b	.L54
 1032              	.L55:
 696:ble_process.c **** 						
 1033              		.loc 1 696 0
 1034 00dc 064B     		ldr	r3, .L57+8
 1035 00de 0222     		movs	r2, #2
 1036 00e0 1A70     		strb	r2, [r3]
 1037              	.L54:
 707:ble_process.c **** 			break;
 1038              		.loc 1 707 0
 1039 00e2 FFF7FEFF 		bl	CyBle_ProcessEvents
 708:ble_process.c **** 			
 1040              		.loc 1 708 0
 1041 00e6 C046     		nop
 1042              	.L45:
 1043              	.L56:
 713:ble_process.c **** 			
 714:ble_process.c **** 		}
 715:ble_process.c **** 	}
 716:ble_process.c **** }
 1044              		.loc 1 716 0
 1045 00e8 C046     		nop
 1046 00ea BD46     		mov	sp, r7
 1047 00ec 03B0     		add	sp, sp, #12
 1048              		@ sp needed
 1049 00ee 90BD     		pop	{r4, r7, pc}
 1050              	.L58:
 1051              		.align	2
 1052              	.L57:
 1053 00f0 00000000 		.word	switch_Role
 1054 00f4 00000000 		.word	cyBle_connHandle
 1055 00f8 00000000 		.word	ble_gap_state
 1056 00fc 00000000 		.word	cyBle_state
 1057 0100 00000000 		.word	current_watchdog_counter
 1058 0104 00000000 		.word	centralStartedTime
 1059 0108 00000000 		.word	new_advData
 1060 010c 00000000 		.word	dataADVCounter
 1061 0110 00000000 		.word	cyBle_discoveryModeInfo
 1062 0114 00000000 		.word	clientConnectToDevice
 1063              		.cfi_endproc
 1064              	.LFE36:
 1065              		.size	SwitchRole, .-SwitchRole
 1066              		.section	.text.ConnectToPeripheralDevice,"ax",%progbits
 1067              		.align	2
 1068              		.global	ConnectToPeripheralDevice
 1069              		.code	16
 1070              		.thumb_func
ARM GAS  C:\Users\lesia\AppData\Local\Temp\ccLDvqSj.s 			page 35


 1071              		.type	ConnectToPeripheralDevice, %function
 1072              	ConnectToPeripheralDevice:
 1073              	.LFB37:
 717:ble_process.c **** 
 718:ble_process.c **** /*******************************************************************************
 719:ble_process.c **** * Function Name: ConnectToPeripheralDevice
 720:ble_process.c **** ********************************************************************************
 721:ble_process.c **** * Summary:
 722:ble_process.c **** *        Connects to Peripheral device with given BD Address.
 723:ble_process.c **** *
 724:ble_process.c **** * Parameters:
 725:ble_process.c **** *  void
 726:ble_process.c **** *
 727:ble_process.c **** * Return:
 728:ble_process.c **** *  void
 729:ble_process.c **** *
 730:ble_process.c **** *******************************************************************************/
 731:ble_process.c **** void ConnectToPeripheralDevice(void)
 732:ble_process.c **** {
 1074              		.loc 1 732 0
 1075              		.cfi_startproc
 1076              		@ args = 0, pretend = 0, frame = 8
 1077              		@ frame_needed = 1, uses_anonymous_args = 0
 1078 0000 90B5     		push	{r4, r7, lr}
 1079              		.cfi_def_cfa_offset 12
 1080              		.cfi_offset 4, -12
 1081              		.cfi_offset 7, -8
 1082              		.cfi_offset 14, -4
 1083 0002 83B0     		sub	sp, sp, #12
 1084              		.cfi_def_cfa_offset 24
 1085 0004 00AF     		add	r7, sp, #0
 1086              		.cfi_def_cfa_register 7
 733:ble_process.c **** 	CYBLE_API_RESULT_T  apiResult;
 734:ble_process.c **** 	
 735:ble_process.c **** 	/* If flag has been set to connect to a device... */
 736:ble_process.c **** 	if(clientConnectToDevice)
 1087              		.loc 1 736 0
 1088 0006 0D4B     		ldr	r3, .L62
 1089 0008 1B78     		ldrb	r3, [r3]
 1090 000a 002B     		cmp	r3, #0
 1091 000c 11D0     		beq	.L61
 737:ble_process.c **** 	{
 738:ble_process.c **** 		/* Process pending BLE events */
 739:ble_process.c **** 		CyBle_ProcessEvents();
 1092              		.loc 1 739 0
 1093 000e FFF7FEFF 		bl	CyBle_ProcessEvents
 740:ble_process.c **** 			
 741:ble_process.c **** 		#if 0
 742:ble_process.c **** 		if(CYBLE_STATE_SCANNING == CyBle_GetState())
 743:ble_process.c **** 		{
 744:ble_process.c **** 			CyBle_GapcStopScan();
 745:ble_process.c **** 			#ifdef DEBUG_ENABLED
 746:ble_process.c **** 				UART_UartPutString("Stop Scan called from clientConnectToDevice ");
 747:ble_process.c **** 				SendBLEStatetoUART(CyBle_GetState());
 748:ble_process.c **** 				UART_UartPutCRLF(' ');
 749:ble_process.c **** 			#endif
 750:ble_process.c **** 			CyBle_ProcessEvents();
ARM GAS  C:\Users\lesia\AppData\Local\Temp\ccLDvqSj.s 			page 36


 751:ble_process.c **** 		}
 752:ble_process.c **** 		#endif
 753:ble_process.c **** 			
 754:ble_process.c **** 		if(CYBLE_STATE_DISCONNECTED == CyBle_GetState())
 1094              		.loc 1 754 0
 1095 0012 0B4B     		ldr	r3, .L62+4
 1096 0014 1B78     		ldrb	r3, [r3]
 1097 0016 062B     		cmp	r3, #6
 1098 0018 0BD1     		bne	.L61
 755:ble_process.c **** 		{
 756:ble_process.c **** 			/* Reset the flag to connect to a device*/
 757:ble_process.c **** 			clientConnectToDevice = FALSE;
 1099              		.loc 1 757 0
 1100 001a 084B     		ldr	r3, .L62
 1101 001c 0022     		movs	r2, #0
 1102 001e 1A70     		strb	r2, [r3]
 758:ble_process.c **** 
 759:ble_process.c **** 			/* Connect to the device whose address has been saved as part of 
 760:ble_process.c **** 			* potential node search */
 761:ble_process.c **** 			apiResult = CyBle_GapcConnectDevice(&peripAddr);
 1103              		.loc 1 761 0
 1104 0020 BC1D     		adds	r4, r7, #6
 1105 0022 084B     		ldr	r3, .L62+8
 1106 0024 1800     		movs	r0, r3
 1107 0026 FFF7FEFF 		bl	CyBle_GapcConnectDevice
 1108 002a 0300     		movs	r3, r0
 1109 002c 2380     		strh	r3, [r4]
 762:ble_process.c **** 			
 763:ble_process.c **** 			if(apiResult != CYBLE_ERROR_OK)
 764:ble_process.c **** 			{
 765:ble_process.c **** 				#ifdef DEBUG_ENABLED
 766:ble_process.c **** 					UART_UartPutString("Connect Request failed ");
 767:ble_process.c **** 					SendBLEStatetoUART(CyBle_GetState());
 768:ble_process.c **** 					UART_UartPutCRLF(' ');
 769:ble_process.c **** 				#endif
 770:ble_process.c **** 			}
 771:ble_process.c **** 			else
 772:ble_process.c **** 			{
 773:ble_process.c **** 				#ifdef DEBUG_ENABLED
 774:ble_process.c **** 					UART_UartPutString("Connect Request Sent ");
 775:ble_process.c **** 					SendBLEStatetoUART(CyBle_GetState());
 776:ble_process.c **** 					UART_UartPutCRLF(' ');
 777:ble_process.c **** 				#endif	
 778:ble_process.c **** 			}
 779:ble_process.c **** 		
 780:ble_process.c **** 			/* Process pending BLE events */
 781:ble_process.c **** 			CyBle_ProcessEvents();
 1110              		.loc 1 781 0
 1111 002e FFF7FEFF 		bl	CyBle_ProcessEvents
 1112              	.L61:
 782:ble_process.c **** 		}
 783:ble_process.c **** 	}
 784:ble_process.c **** }
 1113              		.loc 1 784 0
 1114 0032 C046     		nop
 1115 0034 BD46     		mov	sp, r7
 1116 0036 03B0     		add	sp, sp, #12
ARM GAS  C:\Users\lesia\AppData\Local\Temp\ccLDvqSj.s 			page 37


 1117              		@ sp needed
 1118 0038 90BD     		pop	{r4, r7, pc}
 1119              	.L63:
 1120 003a C046     		.align	2
 1121              	.L62:
 1122 003c 00000000 		.word	clientConnectToDevice
 1123 0040 00000000 		.word	cyBle_state
 1124 0044 00000000 		.word	peripAddr
 1125              		.cfi_endproc
 1126              	.LFE37:
 1127              		.size	ConnectToPeripheralDevice, .-ConnectToPeripheralDevice
 1128              		.section	.text.RestartCentralScanning,"ax",%progbits
 1129              		.align	2
 1130              		.global	RestartCentralScanning
 1131              		.code	16
 1132              		.thumb_func
 1133              		.type	RestartCentralScanning, %function
 1134              	RestartCentralScanning:
 1135              	.LFB38:
 785:ble_process.c **** 
 786:ble_process.c **** /*******************************************************************************
 787:ble_process.c **** * Function Name: RestartCentralScanning
 788:ble_process.c **** ********************************************************************************
 789:ble_process.c **** * Summary:
 790:ble_process.c **** *        Restarts Central scanning. Also, if the time that the device has remained
 791:ble_process.c **** * in Central role exceeds pre-determined value, then the switch role flag is set.
 792:ble_process.c **** *
 793:ble_process.c **** * Parameters:
 794:ble_process.c **** *  void
 795:ble_process.c **** *
 796:ble_process.c **** * Return:
 797:ble_process.c **** *  void
 798:ble_process.c **** *
 799:ble_process.c **** *******************************************************************************/
 800:ble_process.c **** void RestartCentralScanning(void)
 801:ble_process.c **** {
 1136              		.loc 1 801 0
 1137              		.cfi_startproc
 1138              		@ args = 0, pretend = 0, frame = 0
 1139              		@ frame_needed = 1, uses_anonymous_args = 0
 1140 0000 80B5     		push	{r7, lr}
 1141              		.cfi_def_cfa_offset 8
 1142              		.cfi_offset 7, -8
 1143              		.cfi_offset 14, -4
 1144 0002 00AF     		add	r7, sp, #0
 1145              		.cfi_def_cfa_register 7
 802:ble_process.c **** 	/* If the current role is Central and the Central time has exceeded the preset time,
 803:ble_process.c **** 	* then set the flag to switch role to Peripheral */
 804:ble_process.c **** 	if((BLE_CENTRAL == ble_gap_state) && 
 1146              		.loc 1 804 0
 1147 0004 164B     		ldr	r3, .L68
 1148 0006 1B78     		ldrb	r3, [r3]
 1149 0008 022B     		cmp	r3, #2
 1150 000a 15D1     		bne	.L65
 805:ble_process.c **** 		(WatchDog_CurrentCount() - centralStartedTime > CENTRAL_STATE_SPAN) &&
 1151              		.loc 1 805 0 discriminator 1
 1152 000c 154B     		ldr	r3, .L68+4
ARM GAS  C:\Users\lesia\AppData\Local\Temp\ccLDvqSj.s 			page 38


 1153 000e 1B88     		ldrh	r3, [r3]
 1154 0010 9BB2     		uxth	r3, r3
 1155 0012 1A00     		movs	r2, r3
 1156 0014 144B     		ldr	r3, .L68+8
 1157 0016 1B88     		ldrh	r3, [r3]
 1158 0018 9BB2     		uxth	r3, r3
 1159 001a D31A     		subs	r3, r2, r3
 804:ble_process.c **** 		(WatchDog_CurrentCount() - centralStartedTime > CENTRAL_STATE_SPAN) &&
 1160              		.loc 1 804 0 discriminator 1
 1161 001c 2D2B     		cmp	r3, #45
 1162 001e 0BDD     		ble	.L65
 806:ble_process.c **** 		((CYBLE_STATE_DISCONNECTED == CyBle_GetState()) || (CYBLE_STATE_SCANNING == CyBle_GetState())))
 1163              		.loc 1 806 0
 1164 0020 124B     		ldr	r3, .L68+12
 1165 0022 1B78     		ldrb	r3, [r3]
 805:ble_process.c **** 		(WatchDog_CurrentCount() - centralStartedTime > CENTRAL_STATE_SPAN) &&
 1166              		.loc 1 805 0
 1167 0024 062B     		cmp	r3, #6
 1168 0026 03D0     		beq	.L66
 1169              		.loc 1 806 0
 1170 0028 104B     		ldr	r3, .L68+12
 1171 002a 1B78     		ldrb	r3, [r3]
 1172 002c 042B     		cmp	r3, #4
 1173 002e 03D1     		bne	.L65
 1174              	.L66:
 807:ble_process.c **** 	{
 808:ble_process.c **** 		/* Switch role flag set */
 809:ble_process.c **** 		switch_Role = TRUE;
 1175              		.loc 1 809 0
 1176 0030 0F4B     		ldr	r3, .L68+16
 1177 0032 0122     		movs	r2, #1
 1178 0034 1A70     		strb	r2, [r3]
 810:ble_process.c **** 		#ifdef DEBUG_ENABLED
 811:ble_process.c **** 		UART_UartPutString("switchRole from restartScanning loop ");
 812:ble_process.c **** 		UART_UartPutCRLF(' ');
 813:ble_process.c **** 		#endif
 814:ble_process.c **** 		
 815:ble_process.c **** 		return;
 1179              		.loc 1 815 0
 1180 0036 11E0     		b	.L64
 1181              	.L65:
 816:ble_process.c **** 	}
 817:ble_process.c **** 			
 818:ble_process.c **** 	/* If restart scanning flag is set, the restart the Central scanning */
 819:ble_process.c **** 	if(restartScanning)
 1182              		.loc 1 819 0
 1183 0038 0E4B     		ldr	r3, .L68+20
 1184 003a 1B78     		ldrb	r3, [r3]
 1185 003c 002B     		cmp	r3, #0
 1186 003e 0DD0     		beq	.L64
 820:ble_process.c **** 	{
 821:ble_process.c **** 		/* Process pending BLE events */
 822:ble_process.c **** 		CyBle_ProcessEvents();
 1187              		.loc 1 822 0
 1188 0040 FFF7FEFF 		bl	CyBle_ProcessEvents
 823:ble_process.c **** 		if(CYBLE_STATE_DISCONNECTED == CyBle_GetState())
 1189              		.loc 1 823 0
ARM GAS  C:\Users\lesia\AppData\Local\Temp\ccLDvqSj.s 			page 39


 1190 0044 094B     		ldr	r3, .L68+12
 1191 0046 1B78     		ldrb	r3, [r3]
 1192 0048 062B     		cmp	r3, #6
 1193 004a 07D1     		bne	.L64
 824:ble_process.c **** 		{
 825:ble_process.c **** 			/* Reset the restart scanning flag */
 826:ble_process.c **** 			restartScanning = FALSE;
 1194              		.loc 1 826 0
 1195 004c 094B     		ldr	r3, .L68+20
 1196 004e 0022     		movs	r2, #0
 1197 0050 1A70     		strb	r2, [r3]
 827:ble_process.c **** 			#ifdef DEBUG_ENABLED
 828:ble_process.c **** 			UART_UartPutString("restartScanning loop ");
 829:ble_process.c **** 			UART_UartPutCRLF(' ');
 830:ble_process.c **** 			#endif
 831:ble_process.c **** 			
 832:ble_process.c **** 			/* Start Central scan and process the event */
 833:ble_process.c **** 			CyBle_GapcStartScan(CYBLE_SCANNING_FAST);
 1198              		.loc 1 833 0
 1199 0052 0020     		movs	r0, #0
 1200 0054 FFF7FEFF 		bl	CyBle_GapcStartScan
 834:ble_process.c **** 			CyBle_ProcessEvents();
 1201              		.loc 1 834 0
 1202 0058 FFF7FEFF 		bl	CyBle_ProcessEvents
 1203              	.L64:
 835:ble_process.c **** 			
 836:ble_process.c **** 			#ifdef DEBUG_ENABLED
 837:ble_process.c **** 			UART_UartPutString("Start Scan from restartScanning loop ");
 838:ble_process.c **** 			UART_UartPutCRLF(' ');
 839:ble_process.c **** 			#endif
 840:ble_process.c **** 		}
 841:ble_process.c **** 	}
 842:ble_process.c **** }	
 1204              		.loc 1 842 0
 1205 005c BD46     		mov	sp, r7
 1206              		@ sp needed
 1207 005e 80BD     		pop	{r7, pc}
 1208              	.L69:
 1209              		.align	2
 1210              	.L68:
 1211 0060 00000000 		.word	ble_gap_state
 1212 0064 00000000 		.word	current_watchdog_counter
 1213 0068 00000000 		.word	centralStartedTime
 1214 006c 00000000 		.word	cyBle_state
 1215 0070 00000000 		.word	switch_Role
 1216 0074 00000000 		.word	restartScanning
 1217              		.cfi_endproc
 1218              	.LFE38:
 1219              		.size	RestartCentralScanning, .-RestartCentralScanning
 1220              		.section	.text.SendErrorCode,"ax",%progbits
 1221              		.align	2
 1222              		.global	SendErrorCode
 1223              		.code	16
 1224              		.thumb_func
 1225              		.type	SendErrorCode, %function
 1226              	SendErrorCode:
 1227              	.LFB39:
ARM GAS  C:\Users\lesia\AppData\Local\Temp\ccLDvqSj.s 			page 40


 843:ble_process.c **** 
 844:ble_process.c **** /*******************************************************************************
 845:ble_process.c **** * Function Name: SendErrorCode
 846:ble_process.c **** ********************************************************************************
 847:ble_process.c **** * Summary:
 848:ble_process.c **** *        Send Error code at GATT Layer
 849:ble_process.c **** *
 850:ble_process.c **** * Parameters:
 851:ble_process.c **** *  uint8 opCode, 
 852:ble_process.c **** *  CYBLE_GATT_DB_ATTR_HANDLE_T  attrHandle, 
 853:ble_process.c **** *  CYBLE_GATT_ERR_CODE_T errorCode
 854:ble_process.c **** *
 855:ble_process.c **** * Return:
 856:ble_process.c **** *  void
 857:ble_process.c **** *
 858:ble_process.c **** *******************************************************************************/
 859:ble_process.c **** void SendErrorCode(uint8 opCode, CYBLE_GATT_DB_ATTR_HANDLE_T  attrHandle, CYBLE_GATT_ERR_CODE_T err
 860:ble_process.c **** {
 1228              		.loc 1 860 0
 1229              		.cfi_startproc
 1230              		@ args = 0, pretend = 0, frame = 16
 1231              		@ frame_needed = 1, uses_anonymous_args = 0
 1232 0000 90B5     		push	{r4, r7, lr}
 1233              		.cfi_def_cfa_offset 12
 1234              		.cfi_offset 4, -12
 1235              		.cfi_offset 7, -8
 1236              		.cfi_offset 14, -4
 1237 0002 85B0     		sub	sp, sp, #20
 1238              		.cfi_def_cfa_offset 32
 1239 0004 00AF     		add	r7, sp, #0
 1240              		.cfi_def_cfa_register 7
 1241 0006 0400     		movs	r4, r0
 1242 0008 0800     		movs	r0, r1
 1243 000a 1100     		movs	r1, r2
 1244 000c FB1D     		adds	r3, r7, #7
 1245 000e 221C     		adds	r2, r4, #0
 1246 0010 1A70     		strb	r2, [r3]
 1247 0012 3B1D     		adds	r3, r7, #4
 1248 0014 021C     		adds	r2, r0, #0
 1249 0016 1A80     		strh	r2, [r3]
 1250 0018 BB1D     		adds	r3, r7, #6
 1251 001a 0A1C     		adds	r2, r1, #0
 1252 001c 1A70     		strb	r2, [r3]
 861:ble_process.c **** 	CYBLE_GATTS_ERR_PARAM_T err_param;
 862:ble_process.c **** 		            
 863:ble_process.c ****     err_param.opcode = opCode;
 1253              		.loc 1 863 0
 1254 001e 0C23     		movs	r3, #12
 1255 0020 FB18     		adds	r3, r7, r3
 1256 0022 FA1D     		adds	r2, r7, #7
 1257 0024 1278     		ldrb	r2, [r2]
 1258 0026 9A70     		strb	r2, [r3, #2]
 864:ble_process.c ****     err_param.attrHandle = attrHandle;
 1259              		.loc 1 864 0
 1260 0028 0C23     		movs	r3, #12
 1261 002a FB18     		adds	r3, r7, r3
 1262 002c 3A1D     		adds	r2, r7, #4
ARM GAS  C:\Users\lesia\AppData\Local\Temp\ccLDvqSj.s 			page 41


 1263 002e 1288     		ldrh	r2, [r2]
 1264 0030 1A80     		strh	r2, [r3]
 865:ble_process.c ****     err_param.errorCode = errorCode;
 1265              		.loc 1 865 0
 1266 0032 0C23     		movs	r3, #12
 1267 0034 FB18     		adds	r3, r7, r3
 1268 0036 BA1D     		adds	r2, r7, #6
 1269 0038 1278     		ldrb	r2, [r2]
 1270 003a DA70     		strb	r2, [r3, #3]
 866:ble_process.c **** 
 867:ble_process.c ****     /* Send Error Response */
 868:ble_process.c ****     (void)CyBle_GattsErrorRsp(cyBle_connHandle, &err_param);
 1271              		.loc 1 868 0
 1272 003c 0C23     		movs	r3, #12
 1273 003e F918     		adds	r1, r7, r3
 1274 0040 084B     		ldr	r3, .L71
 1275 0042 1A78     		ldrb	r2, [r3]
 1276 0044 5B78     		ldrb	r3, [r3, #1]
 1277 0046 1B02     		lsls	r3, r3, #8
 1278 0048 1A43     		orrs	r2, r3
 1279 004a 0023     		movs	r3, #0
 1280 004c 1204     		lsls	r2, r2, #16
 1281 004e 120C     		lsrs	r2, r2, #16
 1282 0050 1B0C     		lsrs	r3, r3, #16
 1283 0052 1B04     		lsls	r3, r3, #16
 1284 0054 1343     		orrs	r3, r2
 1285 0056 1800     		movs	r0, r3
 1286 0058 FFF7FEFF 		bl	CyBle_GattsErrorRsp
 869:ble_process.c **** }
 1287              		.loc 1 869 0
 1288 005c C046     		nop
 1289 005e BD46     		mov	sp, r7
 1290 0060 05B0     		add	sp, sp, #20
 1291              		@ sp needed
 1292 0062 90BD     		pop	{r4, r7, pc}
 1293              	.L72:
 1294              		.align	2
 1295              	.L71:
 1296 0064 00000000 		.word	cyBle_connHandle
 1297              		.cfi_endproc
 1298              	.LFE39:
 1299              		.size	SendErrorCode, .-SendErrorCode
 1300              		.text
 1301              	.Letext0:
 1302              		.file 2 "Generated_Source\\PSoC4/cytypes.h"
 1303              		.file 3 "Generated_Source\\PSoC4/BLE_Stack.h"
 1304              		.file 4 "Generated_Source\\PSoC4/BLE_StackGap.h"
 1305              		.file 5 "Generated_Source\\PSoC4/BLE_StackGatt.h"
 1306              		.file 6 "Generated_Source\\PSoC4/BLE_StackGattServer.h"
 1307              		.file 7 "Generated_Source\\PSoC4/BLE_StackGattClient.h"
 1308              		.file 8 "Generated_Source\\PSoC4/BLE_eventHandler.h"
 1309              		.file 9 "Generated_Source\\PSoC4/BLE.h"
 1310              		.file 10 "./main.h"