ARM GAS  C:\Users\lesia\AppData\Local\Temp\ccD2ZWq7.s 			page 1


   1              		.syntax unified
   2              		.cpu cortex-m0
   3              		.fpu softvfp
   4              		.eabi_attribute 20, 1
   5              		.eabi_attribute 21, 1
   6              		.eabi_attribute 23, 3
   7              		.eabi_attribute 24, 1
   8              		.eabi_attribute 25, 1
   9              		.eabi_attribute 26, 1
  10              		.eabi_attribute 30, 6
  11              		.eabi_attribute 34, 0
  12              		.eabi_attribute 18, 4
  13              		.thumb
  14              		.syntax unified
  15              		.file	"main.c"
  16              		.text
  17              	.Ltext0:
  18              		.cfi_sections	.debug_frame
  19              		.comm	current_watchdog_counter,2,2
  20              		.comm	speedLeft,4,4
  21              		.comm	speedRight,4,4
  22              		.global	processTachFlag
  23              		.bss
  24              		.align	2
  25              		.type	processTachFlag, %object
  26              		.size	processTachFlag, 4
  27              	processTachFlag:
  28 0000 00000000 		.space	4
  29              		.global	tachLeftNotify
  30              		.align	2
  31              		.type	tachLeftNotify, %object
  32              		.size	tachLeftNotify, 4
  33              	tachLeftNotify:
  34 0004 00000000 		.space	4
  35              		.global	tachRightNotify
  36              		.align	2
  37              		.type	tachRightNotify, %object
  38              		.size	tachRightNotify, 4
  39              	tachRightNotify:
  40 0008 00000000 		.space	4
  41              		.global	tachLeft
  42              		.align	2
  43              		.type	tachLeft, %object
  44              		.size	tachLeft, 4
  45              	tachLeft:
  46 000c 00000000 		.space	4
  47              		.global	tachRight
  48              		.align	2
  49              		.type	tachRight, %object
  50              		.size	tachRight, 4
  51              	tachRight:
  52 0010 00000000 		.space	4
  53              		.global	motorFlag
  54              		.align	2
  55              		.type	motorFlag, %object
  56              		.size	motorFlag, 4
  57              	motorFlag:
ARM GAS  C:\Users\lesia\AppData\Local\Temp\ccD2ZWq7.s 			page 2


  58 0014 00000000 		.space	4
  59              		.global	direct
  60              		.align	2
  61              		.type	direct, %object
  62              		.size	direct, 4
  63              	direct:
  64 0018 00000000 		.space	4
  65              		.section	.text.updateSpeed,"ax",%progbits
  66              		.align	2
  67              		.global	updateSpeed
  68              		.code	16
  69              		.thumb_func
  70              		.type	updateSpeed, %function
  71              	updateSpeed:
  72              	.LFB36:
  73              		.file 1 "main.c"
   1:main.c        **** /******************************************************************************
   2:main.c        **** * Project Name		: Mesh_Flood_PSoC4BLE
   3:main.c        **** * File Name			: main.c
   4:main.c        **** * Version 			: 1.0
   5:main.c        **** * Device Used		: CY8C4247LQI-BL483
   6:main.c        **** * Software Used		: PSoC Creator 3.1 SP1
   7:main.c        **** * Compiler    		: ARM GCC 4.8.4, ARM RVDS Generic, ARM MDK Generic
   8:main.c        **** * Related Hardware	: CY8CKIT-042-BLE Bluetooth Low Energy Pioneer Kit 
   9:main.c        **** * Owner             : roit@cypress.com
  10:main.c        **** *
  11:main.c        **** ********************************************************************************
  12:main.c        **** * Copyright (2014-15), Cypress Semiconductor Corporation. All Rights Reserved.
  13:main.c        **** ********************************************************************************
  14:main.c        **** * This software is owned by Cypress Semiconductor Corporation (Cypress)
  15:main.c        **** * and is protected by and subject to worldwide patent protection (United
  16:main.c        **** * States and foreign), United States copyright laws and international treaty
  17:main.c        **** * provisions. Cypress hereby grants to licensee a personal, non-exclusive,
  18:main.c        **** * non-transferable license to copy, use, modify, create derivative works of,
  19:main.c        **** * and compile the Cypress Source Code and derivative works for the sole
  20:main.c        **** * purpose of creating custom software in support of licensee product to be
  21:main.c        **** * used only in conjunction with a Cypress integrated circuit as specified in
  22:main.c        **** * the applicable agreement. Any reproduction, modification, translation,
  23:main.c        **** * compilation, or representation of this software except as specified above 
  24:main.c        **** * is prohibited without the express written permission of Cypress.
  25:main.c        **** *
  26:main.c        **** * Disclaimer: CYPRESS MAKES NO WARRANTY OF ANY KIND, EXPRESS OR IMPLIED, WITH 
  27:main.c        **** * REGARD TO THIS MATERIAL, INCLUDING, BUT NOT LIMITED TO, THE IMPLIED 
  28:main.c        **** * WARRANTIES OF MERCHANTABILITY AND FITNESS FOR A PARTICULAR PURPOSE.
  29:main.c        **** * Cypress reserves the right to make changes without further notice to the 
  30:main.c        **** * materials described herein. Cypress does not assume any liability arising out 
  31:main.c        **** * of the application or use of any product or circuit described herein. Cypress 
  32:main.c        **** * does not authorize its products for use as critical components in life-support 
  33:main.c        **** * systems where a malfunction or failure may reasonably be expected to result in 
  34:main.c        **** * significant injury to the user. The inclusion of Cypress' product in a life-
  35:main.c        **** * support systems application implies that the manufacturer assumes all risk of 
  36:main.c        **** * such use and in doing so indemnifies Cypress against all charges. 
  37:main.c        **** *
  38:main.c        **** * Use of this Software may be limited by and subject to the applicable Cypress
  39:main.c        **** * software license agreement. 
  40:main.c        **** *******************************************************************************/
  41:main.c        **** #include <main.h>
ARM GAS  C:\Users\lesia\AppData\Local\Temp\ccD2ZWq7.s 			page 3


  42:main.c        **** #include <project.h>
  43:main.c        **** #include <stdlib.h>
  44:main.c        **** #include <stdio.h>
  45:main.c        **** 
  46:main.c        **** extern uint8 switch_Role;
  47:main.c        **** extern uint8 ble_gap_state;
  48:main.c        **** extern uint8 deviceConnected;
  49:main.c        **** 
  50:main.c        **** extern uint8 restartScanning;
  51:main.c        **** 
  52:main.c        **** extern uint8 dataADVCounter;
  53:main.c        **** 
  54:main.c        **** #ifdef ENABLE_ADV_DATA_COUNTER
  55:main.c        **** extern CYBLE_GAPP_DISC_DATA_T  new_advData;
  56:main.c        **** extern uint8 potential_node_found;
  57:main.c        **** extern uint8 potential_node_bdAddr[6];
  58:main.c        **** extern uint8 potential_node_bdAddrType;
  59:main.c        **** #endif
  60:main.c        **** 
  61:main.c        **** extern uint8 clientConnectToDevice;
  62:main.c        **** extern CYBLE_GAP_BD_ADDR_T				peripAddr;;
  63:main.c        **** 
  64:main.c        ****     
  65:main.c        **** int processTachFlag = 0;
  66:main.c        **** int tachLeftNotify = 0;
  67:main.c        **** int tachRightNotify = 0;
  68:main.c        **** int tachLeft = 0;
  69:main.c        **** int tachRight = 0;
  70:main.c        **** 
  71:main.c        **** int motorFlag = 0;
  72:main.c        **** int direct = 0;
  73:main.c        **** 
  74:main.c        **** 
  75:main.c        **** void updateSpeed()
  76:main.c        **** {
  74              		.loc 1 76 0
  75              		.cfi_startproc
  76              		@ args = 0, pretend = 0, frame = 16
  77              		@ frame_needed = 1, uses_anonymous_args = 0
  78 0000 80B5     		push	{r7, lr}
  79              		.cfi_def_cfa_offset 8
  80              		.cfi_offset 7, -8
  81              		.cfi_offset 14, -4
  82 0002 84B0     		sub	sp, sp, #16
  83              		.cfi_def_cfa_offset 24
  84 0004 00AF     		add	r7, sp, #0
  85              		.cfi_def_cfa_register 7
  77:main.c        ****     if(CyBle_GetState() != CYBLE_STATE_CONNECTED)
  86              		.loc 1 77 0
  87 0006 134B     		ldr	r3, .L5
  88 0008 1B78     		ldrb	r3, [r3]
  89 000a 022B     		cmp	r3, #2
  90 000c 1ED1     		bne	.L4
  78:main.c        ****         return;
  79:main.c        **** 
  80:main.c        ****     CYBLE_GATTS_HANDLE_VALUE_NTF_T tempHandle;
  81:main.c        ****     
ARM GAS  C:\Users\lesia\AppData\Local\Temp\ccD2ZWq7.s 			page 4


  82:main.c        ****     tempHandle.attrHandle = CYBLE_MOTORSERVICE_SPEEDLEFT_CHAR_HANDLE;
  91              		.loc 1 82 0
  92 000e 3B1D     		adds	r3, r7, #4
  93 0010 1422     		movs	r2, #20
  94 0012 1A81     		strh	r2, [r3, #8]
  83:main.c        ****     tempHandle.value.val = (uint8 *)&speedLeft;
  95              		.loc 1 83 0
  96 0014 3B1D     		adds	r3, r7, #4
  97 0016 104A     		ldr	r2, .L5+4
  98 0018 1A60     		str	r2, [r3]
  84:main.c        ****     tempHandle.value.len = 1;
  99              		.loc 1 84 0
 100 001a 3B1D     		adds	r3, r7, #4
 101 001c 0122     		movs	r2, #1
 102 001e 9A80     		strh	r2, [r3, #4]
  85:main.c        ****     CyBle_GattsWriteAttributeValue(&tempHandle, 0, &cyBle_connHandle, 0);
 103              		.loc 1 85 0
 104 0020 0E4A     		ldr	r2, .L5+8
 105 0022 381D     		adds	r0, r7, #4
 106 0024 0023     		movs	r3, #0
 107 0026 0021     		movs	r1, #0
 108 0028 FFF7FEFF 		bl	CyBle_GattsWriteAttributeValue
  86:main.c        ****     
  87:main.c        ****     tempHandle.attrHandle = CYBLE_MOTORSERVICE_SPEEDRIGHT_CHAR_HANDLE;
 109              		.loc 1 87 0
 110 002c 3B1D     		adds	r3, r7, #4
 111 002e 1722     		movs	r2, #23
 112 0030 1A81     		strh	r2, [r3, #8]
  88:main.c        ****     tempHandle.value.val = (uint8 *)&speedRight;
 113              		.loc 1 88 0
 114 0032 3B1D     		adds	r3, r7, #4
 115 0034 0A4A     		ldr	r2, .L5+12
 116 0036 1A60     		str	r2, [r3]
  89:main.c        ****     tempHandle.value.len = 1;
 117              		.loc 1 89 0
 118 0038 3B1D     		adds	r3, r7, #4
 119 003a 0122     		movs	r2, #1
 120 003c 9A80     		strh	r2, [r3, #4]
  90:main.c        ****     CyBle_GattsWriteAttributeValue(&tempHandle, 0, &cyBle_connHandle, 0);      
 121              		.loc 1 90 0
 122 003e 074A     		ldr	r2, .L5+8
 123 0040 381D     		adds	r0, r7, #4
 124 0042 0023     		movs	r3, #0
 125 0044 0021     		movs	r1, #0
 126 0046 FFF7FEFF 		bl	CyBle_GattsWriteAttributeValue
 127 004a 00E0     		b	.L1
 128              	.L4:
  78:main.c        **** 
 129              		.loc 1 78 0
 130 004c C046     		nop
 131              	.L1:
  91:main.c        **** }
 132              		.loc 1 91 0
 133 004e BD46     		mov	sp, r7
 134 0050 04B0     		add	sp, sp, #16
 135              		@ sp needed
 136 0052 80BD     		pop	{r7, pc}
ARM GAS  C:\Users\lesia\AppData\Local\Temp\ccD2ZWq7.s 			page 5


 137              	.L6:
 138              		.align	2
 139              	.L5:
 140 0054 00000000 		.word	cyBle_state
 141 0058 00000000 		.word	speedLeft
 142 005c 00000000 		.word	cyBle_connHandle
 143 0060 00000000 		.word	speedRight
 144              		.cfi_endproc
 145              	.LFE36:
 146              		.size	updateSpeed, .-updateSpeed
 147              		.section	.text.setSpeed,"ax",%progbits
 148              		.align	2
 149              		.global	setSpeed
 150              		.code	16
 151              		.thumb_func
 152              		.type	setSpeed, %function
 153              	setSpeed:
 154              	.LFB37:
  92:main.c        **** 
  93:main.c        **** void setSpeed(motor m, int speed)
  94:main.c        **** {
 155              		.loc 1 94 0
 156              		.cfi_startproc
 157              		@ args = 0, pretend = 0, frame = 16
 158              		@ frame_needed = 1, uses_anonymous_args = 0
 159 0000 80B5     		push	{r7, lr}
 160              		.cfi_def_cfa_offset 8
 161              		.cfi_offset 7, -8
 162              		.cfi_offset 14, -4
 163 0002 84B0     		sub	sp, sp, #16
 164              		.cfi_def_cfa_offset 24
 165 0004 00AF     		add	r7, sp, #0
 166              		.cfi_def_cfa_register 7
 167 0006 0200     		movs	r2, r0
 168 0008 3960     		str	r1, [r7]
 169 000a FB1D     		adds	r3, r7, #7
 170 000c 1A70     		strb	r2, [r3]
  95:main.c        ****     int s = abs(speed);
 171              		.loc 1 95 0
 172 000e 3B68     		ldr	r3, [r7]
 173 0010 DA17     		asrs	r2, r3, #31
 174 0012 9B18     		adds	r3, r3, r2
 175 0014 5340     		eors	r3, r2
 176 0016 FB60     		str	r3, [r7, #12]
  96:main.c        ****    // int dir = (s == speed)?0:1;
  97:main.c        ****     
  98:main.c        ****     if(s > MAXSPEED)
 177              		.loc 1 98 0
 178 0018 FB68     		ldr	r3, [r7, #12]
 179 001a 642B     		cmp	r3, #100
 180 001c 19DC     		bgt	.L13
  99:main.c        ****         return;
 100:main.c        ****     
 101:main.c        ****     switch (m)
 181              		.loc 1 101 0
 182 001e FB1D     		adds	r3, r7, #7
 183 0020 1B78     		ldrb	r3, [r3]
ARM GAS  C:\Users\lesia\AppData\Local\Temp\ccD2ZWq7.s 			page 6


 184 0022 002B     		cmp	r3, #0
 185 0024 02D0     		beq	.L11
 186 0026 012B     		cmp	r3, #1
 187 0028 08D0     		beq	.L12
 188 002a 0FE0     		b	.L10
 189              	.L11:
 102:main.c        ****     {
 103:main.c        ****         case LEFT:
 104:main.c        ****             //DIRLEFT_Write(dir);
 105:main.c        ****             PWMLEFT_WriteCompare(s);
 190              		.loc 1 105 0
 191 002c FB68     		ldr	r3, [r7, #12]
 192 002e 1800     		movs	r0, r3
 193 0030 FFF7FEFF 		bl	PWMLEFT_WriteCompare
 106:main.c        ****             speedLeft = speed;         
 194              		.loc 1 106 0
 195 0034 094B     		ldr	r3, .L14
 196 0036 3A68     		ldr	r2, [r7]
 197 0038 1A60     		str	r2, [r3]
 107:main.c        ****         break;
 198              		.loc 1 107 0
 199 003a 07E0     		b	.L10
 200              	.L12:
 108:main.c        ****         case RIGHT:
 109:main.c        ****             //DIRRIGHT_Write(dir);
 110:main.c        ****             PWMRIGHT_WriteCompare(s);
 201              		.loc 1 110 0
 202 003c FB68     		ldr	r3, [r7, #12]
 203 003e 1800     		movs	r0, r3
 204 0040 FFF7FEFF 		bl	PWMRIGHT_WriteCompare
 111:main.c        ****             speedRight = speed;
 205              		.loc 1 111 0
 206 0044 064B     		ldr	r3, .L14+4
 207 0046 3A68     		ldr	r2, [r7]
 208 0048 1A60     		str	r2, [r3]
 112:main.c        ****          //   printf("%c",speedRight);
 113:main.c        ****         break;
 209              		.loc 1 113 0
 210 004a C046     		nop
 211              	.L10:
 114:main.c        ****     }
 115:main.c        ****     updateSpeed();      // Update the speeed in the GATT database
 212              		.loc 1 115 0
 213 004c FFF7FEFF 		bl	updateSpeed
 214 0050 00E0     		b	.L7
 215              	.L13:
  99:main.c        ****     
 216              		.loc 1 99 0
 217 0052 C046     		nop
 218              	.L7:
 116:main.c        **** }
 219              		.loc 1 116 0
 220 0054 BD46     		mov	sp, r7
 221 0056 04B0     		add	sp, sp, #16
 222              		@ sp needed
 223 0058 80BD     		pop	{r7, pc}
 224              	.L15:
ARM GAS  C:\Users\lesia\AppData\Local\Temp\ccD2ZWq7.s 			page 7


 225 005a C046     		.align	2
 226              	.L14:
 227 005c 00000000 		.word	speedLeft
 228 0060 00000000 		.word	speedRight
 229              		.cfi_endproc
 230              	.LFE37:
 231              		.size	setSpeed, .-setSpeed
 232              		.section	.text.updateRpm,"ax",%progbits
 233              		.align	2
 234              		.global	updateRpm
 235              		.code	16
 236              		.thumb_func
 237              		.type	updateRpm, %function
 238              	updateRpm:
 239              	.LFB38:
 117:main.c        **** 
 118:main.c        **** void updateRpm()
 119:main.c        **** {
 240              		.loc 1 119 0
 241              		.cfi_startproc
 242              		@ args = 0, pretend = 0, frame = 16
 243              		@ frame_needed = 1, uses_anonymous_args = 0
 244 0000 80B5     		push	{r7, lr}
 245              		.cfi_def_cfa_offset 8
 246              		.cfi_offset 7, -8
 247              		.cfi_offset 14, -4
 248 0002 84B0     		sub	sp, sp, #16
 249              		.cfi_def_cfa_offset 24
 250 0004 00AF     		add	r7, sp, #0
 251              		.cfi_def_cfa_register 7
 120:main.c        ****     if(CyBle_GetState() != CYBLE_STATE_CONNECTED)
 252              		.loc 1 120 0
 253 0006 0E4B     		ldr	r3, .L21
 254 0008 1B78     		ldrb	r3, [r3]
 255 000a 022B     		cmp	r3, #2
 256 000c 13D1     		bne	.L20
 121:main.c        ****         return;
 122:main.c        ****     
 123:main.c        ****     CYBLE_GATTS_HANDLE_VALUE_NTF_T tempHandle;
 124:main.c        ****     
 125:main.c        ****     /*tempHandle.attrHandle = CYBLE_MOTORSERVICE_TACHLEFT_CHAR_HANDLE;
 126:main.c        ****     tempHandle.value.val = (uint8 *)&tachLeft;
 127:main.c        ****     tempHandle.value.len = 4; // 4 bytes for integer
 128:main.c        ****     CyBle_GattsWriteAttributeValue(&tempHandle, 0, &cyBle_connHandle, 0);
 129:main.c        ****     
 130:main.c        ****     if (tachLeftNotify)
 131:main.c        ****         CyBle_GattsNotification(cyBle_connHandle, &tempHandle);
 132:main.c        ****         
 133:main.c        ****     tempHandle.attrHandle = CYBLE_MOTORSERVICE_TACHRIGHT_CHAR_HANDLE;
 134:main.c        ****     tempHandle.value.val = (uint8 *)&tachRight;
 135:main.c        ****     tempHandle.value.len = 4; // 4 bytes for integer
 136:main.c        ****     CyBle_GattsWriteAttributeValue(&tempHandle, 0, &cyBle_connHandle, 0);*/
 137:main.c        ****     
 138:main.c        ****     if (tachRightNotify)
 257              		.loc 1 138 0
 258 000e 0D4B     		ldr	r3, .L21+4
 259 0010 1B68     		ldr	r3, [r3]
ARM GAS  C:\Users\lesia\AppData\Local\Temp\ccD2ZWq7.s 			page 8


 260 0012 002B     		cmp	r3, #0
 261 0014 10D0     		beq	.L16
 139:main.c        ****         CyBle_GattsNotification(cyBle_connHandle, &tempHandle); 
 262              		.loc 1 139 0
 263 0016 391D     		adds	r1, r7, #4
 264 0018 0B4B     		ldr	r3, .L21+8
 265 001a 1A78     		ldrb	r2, [r3]
 266 001c 5B78     		ldrb	r3, [r3, #1]
 267 001e 1B02     		lsls	r3, r3, #8
 268 0020 1A43     		orrs	r2, r3
 269 0022 0023     		movs	r3, #0
 270 0024 1204     		lsls	r2, r2, #16
 271 0026 120C     		lsrs	r2, r2, #16
 272 0028 1B0C     		lsrs	r3, r3, #16
 273 002a 1B04     		lsls	r3, r3, #16
 274 002c 1343     		orrs	r3, r2
 275 002e 1800     		movs	r0, r3
 276 0030 FFF7FEFF 		bl	CyBle_GattsNotification
 277 0034 00E0     		b	.L16
 278              	.L20:
 121:main.c        ****         return;
 279              		.loc 1 121 0
 280 0036 C046     		nop
 281              	.L16:
 140:main.c        ****         
 141:main.c        **** }
 282              		.loc 1 141 0
 283 0038 BD46     		mov	sp, r7
 284 003a 04B0     		add	sp, sp, #16
 285              		@ sp needed
 286 003c 80BD     		pop	{r7, pc}
 287              	.L22:
 288 003e C046     		.align	2
 289              	.L21:
 290 0040 00000000 		.word	cyBle_state
 291 0044 00000000 		.word	tachRightNotify
 292 0048 00000000 		.word	cyBle_connHandle
 293              		.cfi_endproc
 294              	.LFE38:
 295              		.size	updateRpm, .-updateRpm
 296              		.section	.text.swisr,"ax",%progbits
 297              		.align	2
 298              		.global	swisr
 299              		.code	16
 300              		.thumb_func
 301              		.type	swisr, %function
 302              	swisr:
 303              	.LFB39:
 142:main.c        **** 
 143:main.c        **** CY_ISR(swisr)
 144:main.c        **** {
 304              		.loc 1 144 0
 305              		.cfi_startproc
 306              		@ args = 0, pretend = 0, frame = 0
 307              		@ frame_needed = 1, uses_anonymous_args = 0
 308 0000 80B5     		push	{r7, lr}
 309              		.cfi_def_cfa_offset 8
ARM GAS  C:\Users\lesia\AppData\Local\Temp\ccD2ZWq7.s 			page 9


 310              		.cfi_offset 7, -8
 311              		.cfi_offset 14, -4
 312 0002 00AF     		add	r7, sp, #0
 313              		.cfi_def_cfa_register 7
 145:main.c        ****    // motorFlag = 1;
 146:main.c        ****    // Control_ClearInterrupt();
 147:main.c        ****    if(direct == 0)
 314              		.loc 1 147 0
 315 0004 124B     		ldr	r3, .L27
 316 0006 1B68     		ldr	r3, [r3]
 317 0008 002B     		cmp	r3, #0
 318 000a 0FD1     		bne	.L24
 148:main.c        ****    { 
 149:main.c        ****        POWERLEFT_Write(0);
 319              		.loc 1 149 0
 320 000c 0020     		movs	r0, #0
 321 000e FFF7FEFF 		bl	POWERLEFT_Write
 150:main.c        ****        POWERRIGHT_Write(0);
 322              		.loc 1 150 0
 323 0012 0020     		movs	r0, #0
 324 0014 FFF7FEFF 		bl	POWERRIGHT_Write
 151:main.c        ****        GNDLEFT_Write(1);
 325              		.loc 1 151 0
 326 0018 0120     		movs	r0, #1
 327 001a FFF7FEFF 		bl	GNDLEFT_Write
 152:main.c        ****        GNDRIGHT_Write(1);
 328              		.loc 1 152 0
 329 001e 0120     		movs	r0, #1
 330 0020 FFF7FEFF 		bl	GNDRIGHT_Write
 153:main.c        ****        direct = 1;
 331              		.loc 1 153 0
 332 0024 0A4B     		ldr	r3, .L27
 333 0026 0122     		movs	r2, #1
 334 0028 1A60     		str	r2, [r3]
 154:main.c        ****    }
 155:main.c        ****    else
 156:main.c        ****    {
 157:main.c        ****        POWERLEFT_Write(1);
 158:main.c        ****        POWERRIGHT_Write(1);
 159:main.c        ****        GNDLEFT_Write(0);
 160:main.c        ****        GNDRIGHT_Write(0);
 161:main.c        ****        direct = 0;   
 162:main.c        ****    }
 163:main.c        **** }
 335              		.loc 1 163 0
 336 002a 0EE0     		b	.L26
 337              	.L24:
 157:main.c        ****        POWERRIGHT_Write(1);
 338              		.loc 1 157 0
 339 002c 0120     		movs	r0, #1
 340 002e FFF7FEFF 		bl	POWERLEFT_Write
 158:main.c        ****        GNDLEFT_Write(0);
 341              		.loc 1 158 0
 342 0032 0120     		movs	r0, #1
 343 0034 FFF7FEFF 		bl	POWERRIGHT_Write
 159:main.c        ****        GNDRIGHT_Write(0);
 344              		.loc 1 159 0
ARM GAS  C:\Users\lesia\AppData\Local\Temp\ccD2ZWq7.s 			page 10


 345 0038 0020     		movs	r0, #0
 346 003a FFF7FEFF 		bl	GNDLEFT_Write
 160:main.c        ****        direct = 0;   
 347              		.loc 1 160 0
 348 003e 0020     		movs	r0, #0
 349 0040 FFF7FEFF 		bl	GNDRIGHT_Write
 161:main.c        ****    }
 350              		.loc 1 161 0
 351 0044 024B     		ldr	r3, .L27
 352 0046 0022     		movs	r2, #0
 353 0048 1A60     		str	r2, [r3]
 354              	.L26:
 355              		.loc 1 163 0
 356 004a C046     		nop
 357 004c BD46     		mov	sp, r7
 358              		@ sp needed
 359 004e 80BD     		pop	{r7, pc}
 360              	.L28:
 361              		.align	2
 362              	.L27:
 363 0050 00000000 		.word	direct
 364              		.cfi_endproc
 365              	.LFE39:
 366              		.size	swisr, .-swisr
 367              		.section	.text.tachISR,"ax",%progbits
 368              		.align	2
 369              		.global	tachISR
 370              		.code	16
 371              		.thumb_func
 372              		.type	tachISR, %function
 373              	tachISR:
 374              	.LFB40:
 164:main.c        **** 
 165:main.c        **** CY_ISR(tachISR)
 166:main.c        **** {
 375              		.loc 1 166 0
 376              		.cfi_startproc
 377              		@ args = 0, pretend = 0, frame = 0
 378              		@ frame_needed = 1, uses_anonymous_args = 0
 379 0000 80B5     		push	{r7, lr}
 380              		.cfi_def_cfa_offset 8
 381              		.cfi_offset 7, -8
 382              		.cfi_offset 14, -4
 383 0002 00AF     		add	r7, sp, #0
 384              		.cfi_def_cfa_register 7
 167:main.c        ****     processTachFlag = 1;
 385              		.loc 1 167 0
 386 0004 034B     		ldr	r3, .L30
 387 0006 0122     		movs	r2, #1
 388 0008 1A60     		str	r2, [r3]
 168:main.c        ****     tachPwm_ReadStatusRegister(); // clear the interrupt  
 389              		.loc 1 168 0
 390 000a FFF7FEFF 		bl	tachPwm_ReadStatusRegister
 169:main.c        **** }
 391              		.loc 1 169 0
 392 000e C046     		nop
 393 0010 BD46     		mov	sp, r7
ARM GAS  C:\Users\lesia\AppData\Local\Temp\ccD2ZWq7.s 			page 11


 394              		@ sp needed
 395 0012 80BD     		pop	{r7, pc}
 396              	.L31:
 397              		.align	2
 398              	.L30:
 399 0014 00000000 		.word	processTachFlag
 400              		.cfi_endproc
 401              	.LFE40:
 402              		.size	tachISR, .-tachISR
 403              		.section	.text.handleMotor,"ax",%progbits
 404              		.align	2
 405              		.global	handleMotor
 406              		.code	16
 407              		.thumb_func
 408              		.type	handleMotor, %function
 409              	handleMotor:
 410              	.LFB42:
 170:main.c        **** 
 171:main.c        **** inline void processTach()
 172:main.c        **** {
 173:main.c        ****     processTachFlag = 0;
 174:main.c        ****     updateRpm(); // Update the GATT database with the new RPM values
 175:main.c        **** }
 176:main.c        **** 
 177:main.c        **** void handleMotor()
 178:main.c        **** {
 411              		.loc 1 178 0
 412              		.cfi_startproc
 413              		@ args = 0, pretend = 0, frame = 0
 414              		@ frame_needed = 1, uses_anonymous_args = 0
 415 0000 80B5     		push	{r7, lr}
 416              		.cfi_def_cfa_offset 8
 417              		.cfi_offset 7, -8
 418              		.cfi_offset 14, -4
 419 0002 00AF     		add	r7, sp, #0
 420              		.cfi_def_cfa_register 7
 179:main.c        ****     static int motorState = 1;
 180:main.c        ****     if(motorFlag)
 421              		.loc 1 180 0
 422 0004 0F4B     		ldr	r3, .L37
 423 0006 1B68     		ldr	r3, [r3]
 424 0008 002B     		cmp	r3, #0
 425 000a 17D0     		beq	.L36
 181:main.c        ****     {
 182:main.c        ****         if(motorState)
 426              		.loc 1 182 0
 427 000c 0E4B     		ldr	r3, .L37+4
 428 000e 1B68     		ldr	r3, [r3]
 429 0010 002B     		cmp	r3, #0
 430 0012 04D0     		beq	.L34
 183:main.c        ****         {
 184:main.c        ****             PWMLEFT_Stop();
 431              		.loc 1 184 0
 432 0014 FFF7FEFF 		bl	PWMLEFT_Stop
 185:main.c        ****             PWMRIGHT_Stop();
 433              		.loc 1 185 0
 434 0018 FFF7FEFF 		bl	PWMRIGHT_Stop
ARM GAS  C:\Users\lesia\AppData\Local\Temp\ccD2ZWq7.s 			page 12


 435 001c 03E0     		b	.L35
 436              	.L34:
 186:main.c        ****         }
 187:main.c        ****         else
 188:main.c        ****         {
 189:main.c        ****             PWMLEFT_Start();
 437              		.loc 1 189 0
 438 001e FFF7FEFF 		bl	PWMLEFT_Start
 190:main.c        ****             PWMRIGHT_Start();
 439              		.loc 1 190 0
 440 0022 FFF7FEFF 		bl	PWMRIGHT_Start
 441              	.L35:
 191:main.c        ****         }
 192:main.c        ****         motorState = !motorState;
 442              		.loc 1 192 0
 443 0026 084B     		ldr	r3, .L37+4
 444 0028 1B68     		ldr	r3, [r3]
 445 002a 5A42     		rsbs	r2, r3, #0
 446 002c 5341     		adcs	r3, r3, r2
 447 002e DBB2     		uxtb	r3, r3
 448 0030 1A00     		movs	r2, r3
 449 0032 054B     		ldr	r3, .L37+4
 450 0034 1A60     		str	r2, [r3]
 193:main.c        ****         motorFlag = 0;
 451              		.loc 1 193 0
 452 0036 034B     		ldr	r3, .L37
 453 0038 0022     		movs	r2, #0
 454 003a 1A60     		str	r2, [r3]
 455              	.L36:
 194:main.c        ****     } 
 195:main.c        **** }
 456              		.loc 1 195 0
 457 003c C046     		nop
 458 003e BD46     		mov	sp, r7
 459              		@ sp needed
 460 0040 80BD     		pop	{r7, pc}
 461              	.L38:
 462 0042 C046     		.align	2
 463              	.L37:
 464 0044 00000000 		.word	motorFlag
 465 0048 00000000 		.word	motorState.9399
 466              		.cfi_endproc
 467              	.LFE42:
 468              		.size	handleMotor, .-handleMotor
 469              		.section	.text.main,"ax",%progbits
 470              		.align	2
 471              		.global	main
 472              		.code	16
 473              		.thumb_func
 474              		.type	main, %function
 475              	main:
 476              	.LFB43:
 196:main.c        **** 
 197:main.c        **** /*******************************************************************************
 198:main.c        **** * Function Name: main
 199:main.c        **** ********************************************************************************
 200:main.c        **** * Summary:
ARM GAS  C:\Users\lesia\AppData\Local\Temp\ccD2ZWq7.s 			page 13


 201:main.c        **** *       Entry point for the firmware, Starts the system and continuously processes
 202:main.c        **** * Application and BLE events.
 203:main.c        **** *
 204:main.c        **** * Parameters:
 205:main.c        **** *  void
 206:main.c        **** *
 207:main.c        **** * Return:
 208:main.c        **** *  int
 209:main.c        **** *
 210:main.c        **** *******************************************************************************/
 211:main.c        **** int main()
 212:main.c        **** {
 477              		.loc 1 212 0
 478              		.cfi_startproc
 479              		@ args = 0, pretend = 0, frame = 0
 480              		@ frame_needed = 1, uses_anonymous_args = 0
 481 0000 80B5     		push	{r7, lr}
 482              		.cfi_def_cfa_offset 8
 483              		.cfi_offset 7, -8
 484              		.cfi_offset 14, -4
 485 0002 00AF     		add	r7, sp, #0
 486              		.cfi_def_cfa_register 7
 213:main.c        ****     /* Initialize system */	
 214:main.c        **** 	InitializeSystem();
 487              		.loc 1 214 0
 488 0004 FFF7FEFF 		bl	InitializeSystem
 489              	.L40:
 215:main.c        **** 	
 216:main.c        **** 	#ifdef DEBUG_ENABLED
 217:main.c        **** 		UART_UartPutString("Sytem Started ");
 218:main.c        **** 		UART_UartPutCRLF(' ');
 219:main.c        **** 	#endif
 220:main.c        **** 	
 221:main.c        ****     for(;;)
 222:main.c        ****     {
 223:main.c        **** 		/* Process BLE Events. This function generates the respective 
 224:main.c        **** 		* events to application layer */
 225:main.c        **** 		CyBle_ProcessEvents();
 490              		.loc 1 225 0 discriminator 1
 491 0008 FFF7FEFF 		bl	CyBle_ProcessEvents
 226:main.c        **** 
 227:main.c        **** 		/* If flag is set, then switch the GAP role between Peripheral and 
 228:main.c        **** 		* Central. This function disconnects existing connection, if any, 
 229:main.c        **** 		* before switching role. Depending on switched role, the system will
 230:main.c        **** 		* either start scanning or start advertisement */
 231:main.c        **** 		SwitchRole();
 492              		.loc 1 231 0 discriminator 1
 493 000c FFF7FEFF 		bl	SwitchRole
 232:main.c        **** 		
 233:main.c        **** 		/* If a valid node is found, then this function will initiate a connection 
 234:main.c        **** 		* to that node. */
 235:main.c        **** 		ConnectToPeripheralDevice();
 494              		.loc 1 235 0 discriminator 1
 495 0010 FFF7FEFF 		bl	ConnectToPeripheralDevice
 236:main.c        **** 		
 237:main.c        **** 		/* This function will restart scanning when earlier connection has been
 238:main.c        **** 		* disconnected. This function also checks internal counter and sets flag to
ARM GAS  C:\Users\lesia\AppData\Local\Temp\ccD2ZWq7.s 			page 14


 239:main.c        **** 		* switch role from Central to Peripheral when the count is above set value. */
 240:main.c        **** 		RestartCentralScanning();
 496              		.loc 1 240 0 discriminator 1
 497 0014 FFF7FEFF 		bl	RestartCentralScanning
 241:main.c        ****                
 242:main.c        ****     }
 498              		.loc 1 242 0 discriminator 1
 499 0018 F6E7     		b	.L40
 500              		.cfi_endproc
 501              	.LFE43:
 502              		.size	main, .-main
 503 001a C046     		.section	.rodata
 504              		.align	2
 505              	.LC19:
 506 0000 2D2D2D2D 		.ascii	"--------------------------Mesh Flood---------------"
 506      2D2D2D2D 
 506      2D2D2D2D 
 506      2D2D2D2D 
 506      2D2D2D2D 
 507 0033 2D2D2D2D 		.ascii	"---------------------------\000"
 507      2D2D2D2D 
 507      2D2D2D2D 
 507      2D2D2D2D 
 507      2D2D2D2D 
 508              		.section	.text.InitializeSystem,"ax",%progbits
 509              		.align	2
 510              		.global	InitializeSystem
 511              		.code	16
 512              		.thumb_func
 513              		.type	InitializeSystem, %function
 514              	InitializeSystem:
 515              	.LFB44:
 243:main.c        **** }
 244:main.c        **** 
 245:main.c        **** /*******************************************************************************
 246:main.c        **** * Function Name: InitializeSystem
 247:main.c        **** ********************************************************************************
 248:main.c        **** * Summary:
 249:main.c        **** *       Starts the components in the project and registers BLE event handler 
 250:main.c        **** * function. It also modifies the advertisement packet and appends data counter
 251:main.c        **** * at its end.
 252:main.c        **** *
 253:main.c        **** * Parameters:
 254:main.c        **** *  void
 255:main.c        **** *
 256:main.c        **** * Return:
 257:main.c        **** *  void
 258:main.c        **** *
 259:main.c        **** *******************************************************************************/
 260:main.c        **** void InitializeSystem(void)
 261:main.c        **** {
 516              		.loc 1 261 0
 517              		.cfi_startproc
 518              		@ args = 0, pretend = 0, frame = 0
 519              		@ frame_needed = 1, uses_anonymous_args = 0
 520 0000 80B5     		push	{r7, lr}
 521              		.cfi_def_cfa_offset 8
ARM GAS  C:\Users\lesia\AppData\Local\Temp\ccD2ZWq7.s 			page 15


 522              		.cfi_offset 7, -8
 523              		.cfi_offset 14, -4
 524 0002 00AF     		add	r7, sp, #0
 525              		.cfi_def_cfa_register 7
 262:main.c        **** 	/* Enable global interrupts. */
 263:main.c        **** 	CyGlobalIntEnable;
 526              		.loc 1 263 0
 527              		.syntax divided
 528              	@ 263 "main.c" 1
 529 0004 62B6     		CPSIE   i
 530              	@ 0 "" 2
 264:main.c        **** 	
 265:main.c        **** 	/* Start BLE component and Register the generic Event callback function */
 266:main.c        **** 	CyBle_Start(GenericEventHandler);
 531              		.loc 1 266 0
 532              		.thumb
 533              		.syntax unified
 534 0006 394B     		ldr	r3, .L43
 535 0008 1800     		movs	r0, r3
 536 000a FFF7FEFF 		bl	CyBle_Start
 267:main.c        ****     
 268:main.c        ****     swint_StartEx(swisr);
 537              		.loc 1 268 0
 538 000e 384B     		ldr	r3, .L43+4
 539 0010 1800     		movs	r0, r3
 540 0012 FFF7FEFF 		bl	swint_StartEx
 269:main.c        **** 	
 270:main.c        **** 	/* Start the PrISM component and configure drive mode of LED pins to be
 271:main.c        **** 	* initially OFF*/
 272:main.c        **** 	PrISM_1_Start();
 541              		.loc 1 272 0
 542 0016 FFF7FEFF 		bl	PrISM_1_Start
 273:main.c        **** 	PrISM_2_Start();
 543              		.loc 1 273 0
 544 001a FFF7FEFF 		bl	PrISM_2_Start
 274:main.c        ****     PWMLEFT_Start();
 545              		.loc 1 274 0
 546 001e FFF7FEFF 		bl	PWMLEFT_Start
 275:main.c        ****     PWMRIGHT_Start();
 547              		.loc 1 275 0
 548 0022 FFF7FEFF 		bl	PWMRIGHT_Start
 276:main.c        ****     setSpeed(LEFT,0);
 549              		.loc 1 276 0
 550 0026 0021     		movs	r1, #0
 551 0028 0020     		movs	r0, #0
 552 002a FFF7FEFF 		bl	setSpeed
 277:main.c        ****     setSpeed(RIGHT,0);
 553              		.loc 1 277 0
 554 002e 0021     		movs	r1, #0
 555 0030 0120     		movs	r0, #1
 556 0032 FFF7FEFF 		bl	setSpeed
 278:main.c        **** 	
 279:main.c        **** 	PrISM_1_WritePulse0(255);
 557              		.loc 1 279 0
 558 0036 FF20     		movs	r0, #255
 559 0038 FFF7FEFF 		bl	PrISM_1_WritePulse0
 280:main.c        **** 	PrISM_1_WritePulse1(255);
ARM GAS  C:\Users\lesia\AppData\Local\Temp\ccD2ZWq7.s 			page 16


 560              		.loc 1 280 0
 561 003c FF20     		movs	r0, #255
 562 003e FFF7FEFF 		bl	PrISM_1_WritePulse1
 281:main.c        **** 	PrISM_2_WritePulse0(0);
 563              		.loc 1 281 0
 564 0042 0020     		movs	r0, #0
 565 0044 FFF7FEFF 		bl	PrISM_2_WritePulse0
 282:main.c        ****     
 283:main.c        ****     tachPwm_Start();
 566              		.loc 1 283 0
 567 0048 FFF7FEFF 		bl	tachPwm_Start
 284:main.c        ****     tachTimer_StartEx(tachISR);
 568              		.loc 1 284 0
 569 004c 294B     		ldr	r3, .L43+8
 570 004e 1800     		movs	r0, r3
 571 0050 FFF7FEFF 		bl	tachTimer_StartEx
 285:main.c        **** 	
 286:main.c        **** 	RED_SetDriveMode(RED_DM_STRONG);
 572              		.loc 1 286 0
 573 0054 0620     		movs	r0, #6
 574 0056 FFF7FEFF 		bl	RED_SetDriveMode
 287:main.c        **** 	GREEN_SetDriveMode(GREEN_DM_STRONG);
 575              		.loc 1 287 0
 576 005a 0620     		movs	r0, #6
 577 005c FFF7FEFF 		bl	GREEN_SetDriveMode
 288:main.c        **** 	BLUE_SetDriveMode(BLUE_DM_STRONG);
 578              		.loc 1 288 0
 579 0060 0620     		movs	r0, #6
 580 0062 FFF7FEFF 		bl	BLUE_SetDriveMode
 289:main.c        **** 	
 290:main.c        **** 	/* Configure the Watchdog (WDT) timer for 100 millisecond timing */
 291:main.c        **** 	InitializeWatchdog(WATCHDOG_COUNT_VAL);
 581              		.loc 1 291 0
 582 0066 244B     		ldr	r3, .L43+12
 583 0068 1800     		movs	r0, r3
 584 006a FFF7FEFF 		bl	InitializeWatchdog
 292:main.c        **** 
 293:main.c        **** 	#ifdef ENABLE_ADV_DATA_COUNTER
 294:main.c        **** 	new_advData = *cyBle_discoveryModeInfo.advData;
 585              		.loc 1 294 0
 586 006e 234B     		ldr	r3, .L43+16
 587 0070 9B68     		ldr	r3, [r3, #8]
 588 0072 234A     		ldr	r2, .L43+20
 589 0074 1000     		movs	r0, r2
 590 0076 1900     		movs	r1, r3
 591 0078 2023     		movs	r3, #32
 592 007a 1A00     		movs	r2, r3
 593 007c FFF7FEFF 		bl	memcpy
 295:main.c        **** 	
 296:main.c        **** 	if( cyBle_discoveryModeInfo.advData->advDataLen < 29)
 594              		.loc 1 296 0
 595 0080 1E4B     		ldr	r3, .L43+16
 596 0082 9B68     		ldr	r3, [r3, #8]
 597 0084 DB7F     		ldrb	r3, [r3, #31]
 598 0086 1C2B     		cmp	r3, #28
 599 0088 15D8     		bhi	.L42
 297:main.c        **** 	{
ARM GAS  C:\Users\lesia\AppData\Local\Temp\ccD2ZWq7.s 			page 17


 298:main.c        **** 		/* Initialize the DataCounter data in advertisement packet. This is custom data in 
 299:main.c        **** 		* ADV packet and used to track whether the RGB LED data is latest or not */
 300:main.c        **** 		new_advData.advData[cyBle_discoveryModeInfo.advData->advDataLen] = CUSTOM_ADV_DATA_MARKER;	
 600              		.loc 1 300 0
 601 008a 1C4B     		ldr	r3, .L43+16
 602 008c 9B68     		ldr	r3, [r3, #8]
 603 008e DB7F     		ldrb	r3, [r3, #31]
 604 0090 1A00     		movs	r2, r3
 605 0092 1B4B     		ldr	r3, .L43+20
 606 0094 0121     		movs	r1, #1
 607 0096 9954     		strb	r1, [r3, r2]
 301:main.c        **** 		new_advData.advData[cyBle_discoveryModeInfo.advData->advDataLen+1] = dataADVCounter;
 608              		.loc 1 301 0
 609 0098 184B     		ldr	r3, .L43+16
 610 009a 9B68     		ldr	r3, [r3, #8]
 611 009c DB7F     		ldrb	r3, [r3, #31]
 612 009e 0133     		adds	r3, r3, #1
 613 00a0 184A     		ldr	r2, .L43+24
 614 00a2 1178     		ldrb	r1, [r2]
 615 00a4 164A     		ldr	r2, .L43+20
 616 00a6 D154     		strb	r1, [r2, r3]
 302:main.c        **** 		new_advData.advDataLen = cyBle_discoveryModeInfo.advData->advDataLen+2;
 617              		.loc 1 302 0
 618 00a8 144B     		ldr	r3, .L43+16
 619 00aa 9B68     		ldr	r3, [r3, #8]
 620 00ac DB7F     		ldrb	r3, [r3, #31]
 621 00ae 0233     		adds	r3, r3, #2
 622 00b0 DAB2     		uxtb	r2, r3
 623 00b2 134B     		ldr	r3, .L43+20
 624 00b4 DA77     		strb	r2, [r3, #31]
 625              	.L42:
 303:main.c        **** 	}
 304:main.c        **** 	
 305:main.c        **** 	/* Assign the new ADV data to stack */
 306:main.c        **** 	cyBle_discoveryModeInfo.advData = &new_advData;
 626              		.loc 1 306 0
 627 00b6 114B     		ldr	r3, .L43+16
 628 00b8 114A     		ldr	r2, .L43+20
 629 00ba 9A60     		str	r2, [r3, #8]
 307:main.c        **** 	#endif
 308:main.c        **** 		
 309:main.c        **** 	/* Provide a color pusle on RGB LED to indicate startup */
 310:main.c        **** 	PrISM_1_WritePulse1(128);
 630              		.loc 1 310 0
 631 00bc 8020     		movs	r0, #128
 632 00be FFF7FEFF 		bl	PrISM_1_WritePulse1
 311:main.c        **** 	CyDelay(20);
 633              		.loc 1 311 0
 634 00c2 1420     		movs	r0, #20
 635 00c4 FFF7FEFF 		bl	CyDelay
 312:main.c        **** 	PrISM_1_WritePulse1(255);
 636              		.loc 1 312 0
 637 00c8 FF20     		movs	r0, #255
 638 00ca FFF7FEFF 		bl	PrISM_1_WritePulse1
 313:main.c        **** 	handleMotor();
 639              		.loc 1 313 0
 640 00ce FFF7FEFF 		bl	handleMotor
ARM GAS  C:\Users\lesia\AppData\Local\Temp\ccD2ZWq7.s 			page 18


 314:main.c        ****             
 315:main.c        **** 	//#ifdef DEBUG_ENABLED
 316:main.c        ****     UART_Start();
 641              		.loc 1 316 0
 642 00d2 FFF7FEFF 		bl	UART_Start
 317:main.c        **** 	UART_UartPutString("--------------------------Mesh Flood------------------------------------------
 643              		.loc 1 317 0
 644 00d6 0C4B     		ldr	r3, .L43+28
 645 00d8 1800     		movs	r0, r3
 646 00da FFF7FEFF 		bl	UART_UartPutString
 318:main.c        **** 	UART_UartPutCRLF(' ');
 647              		.loc 1 318 0
 648 00de 2020     		movs	r0, #32
 649 00e0 FFF7FEFF 		bl	UART_UartPutCRLF
 319:main.c        **** 	//#endif
 320:main.c        **** }
 650              		.loc 1 320 0
 651 00e4 C046     		nop
 652 00e6 BD46     		mov	sp, r7
 653              		@ sp needed
 654 00e8 80BD     		pop	{r7, pc}
 655              	.L44:
 656 00ea C046     		.align	2
 657              	.L43:
 658 00ec 00000000 		.word	GenericEventHandler
 659 00f0 00000000 		.word	swisr
 660 00f4 00000000 		.word	tachISR
 661 00f8 CC0C0000 		.word	3276
 662 00fc 00000000 		.word	cyBle_discoveryModeInfo
 663 0100 00000000 		.word	new_advData
 664 0104 00000000 		.word	dataADVCounter
 665 0108 00000000 		.word	.LC19
 666              		.cfi_endproc
 667              	.LFE44:
 668              		.size	InitializeSystem, .-InitializeSystem
 669              		.section	.text.UpdateRGBled,"ax",%progbits
 670              		.align	2
 671              		.global	UpdateRGBled
 672              		.code	16
 673              		.thumb_func
 674              		.type	UpdateRGBled, %function
 675              	UpdateRGBled:
 676              	.LFB45:
 321:main.c        **** 
 322:main.c        **** /*******************************************************************************
 323:main.c        **** * Function Name: UpdateRGBled
 324:main.c        **** ********************************************************************************
 325:main.c        **** * Summary:
 326:main.c        **** *        Update the RGB LED color by reconfiguring PrISM component. This function 
 327:main.c        **** * is valid for PSoC 4 BLE parts and not PROC BLE, as PRoC BLE does not have UDBs
 328:main.c        **** * that makes up the PrISM component. To replace this with software PrISM, refer to
 329:main.c        **** * CY8CKIT-042-BLE Pioneer Kit example project, PRoC_BLE_CapSense_Slider_LED, from
 330:main.c        **** * http://www.cypress.com/CY8CKIT-042-BLE
 331:main.c        **** *
 332:main.c        **** * Parameters:
 333:main.c        **** *  rgb_led_data: array storing the RGB and Intensity vlaue
 334:main.c        **** *  len: length of the array.
ARM GAS  C:\Users\lesia\AppData\Local\Temp\ccD2ZWq7.s 			page 19


 335:main.c        **** *
 336:main.c        **** * Return:
 337:main.c        **** *  void
 338:main.c        **** *
 339:main.c        **** *******************************************************************************/
 340:main.c        **** void UpdateRGBled(uint8 * rgb_led_data, uint8 len)
 341:main.c        **** {
 677              		.loc 1 341 0
 678              		.cfi_startproc
 679              		@ args = 0, pretend = 0, frame = 16
 680              		@ frame_needed = 1, uses_anonymous_args = 0
 681 0000 80B5     		push	{r7, lr}
 682              		.cfi_def_cfa_offset 8
 683              		.cfi_offset 7, -8
 684              		.cfi_offset 14, -4
 685 0002 84B0     		sub	sp, sp, #16
 686              		.cfi_def_cfa_offset 24
 687 0004 00AF     		add	r7, sp, #0
 688              		.cfi_def_cfa_register 7
 689 0006 7860     		str	r0, [r7, #4]
 690 0008 0A00     		movs	r2, r1
 691 000a FB1C     		adds	r3, r7, #3
 692 000c 1A70     		strb	r2, [r3]
 342:main.c        **** 	uint8 calc_red, calc_green, calc_blue;
 343:main.c        **** 	
 344:main.c        **** 	if(len == RGB_LED_DATA_LEN)
 693              		.loc 1 344 0
 694 000e FB1C     		adds	r3, r7, #3
 695 0010 1B78     		ldrb	r3, [r3]
 696 0012 022B     		cmp	r3, #2
 697 0014 28D1     		bne	.L47
 345:main.c        **** 	{
 346:main.c        **** 		/* If a valid length packet has been sent, calculate the intensity of each of
 347:main.c        **** 		* R, G and B color and update the PrISM module */
 348:main.c        **** 		calc_red = (uint8)(((uint16)rgb_led_data[RGB_RED_INDEX]));
 698              		.loc 1 348 0
 699 0016 0F23     		movs	r3, #15
 700 0018 FB18     		adds	r3, r7, r3
 701 001a 7A68     		ldr	r2, [r7, #4]
 702 001c 1278     		ldrb	r2, [r2]
 703 001e 1A70     		strb	r2, [r3]
 349:main.c        **** 		calc_green = (uint8)(((uint16)rgb_led_data[RGB_GREEN_INDEX]));
 704              		.loc 1 349 0
 705 0020 7B68     		ldr	r3, [r7, #4]
 706 0022 5A1C     		adds	r2, r3, #1
 707 0024 0E23     		movs	r3, #14
 708 0026 FB18     		adds	r3, r7, r3
 709 0028 1278     		ldrb	r2, [r2]
 710 002a 1A70     		strb	r2, [r3]
 350:main.c        **** 	//	calc_blue = (uint8)(((uint16)rgb_led_data[RGB_BLUE_INDEX]*rgb_led_data[RGB_INTENSITY_INDEX])/RG
 351:main.c        **** 		
 352:main.c        **** 
 353:main.c        ****         setSpeed(LEFT, calc_red);
 711              		.loc 1 353 0
 712 002c 0F23     		movs	r3, #15
 713 002e FB18     		adds	r3, r7, r3
 714 0030 1B78     		ldrb	r3, [r3]
ARM GAS  C:\Users\lesia\AppData\Local\Temp\ccD2ZWq7.s 			page 20


 715 0032 1900     		movs	r1, r3
 716 0034 0020     		movs	r0, #0
 717 0036 FFF7FEFF 		bl	setSpeed
 354:main.c        ****         setSpeed(RIGHT, calc_green);
 718              		.loc 1 354 0
 719 003a 0E23     		movs	r3, #14
 720 003c FB18     		adds	r3, r7, r3
 721 003e 1B78     		ldrb	r3, [r3]
 722 0040 1900     		movs	r1, r3
 723 0042 0120     		movs	r0, #1
 724 0044 FFF7FEFF 		bl	setSpeed
 355:main.c        ****         
 356:main.c        ****         PrISM_1_WritePulse0(RGB_LED_MAX_VAL - calc_red);
 725              		.loc 1 356 0
 726 0048 0F23     		movs	r3, #15
 727 004a FB18     		adds	r3, r7, r3
 728 004c 1B78     		ldrb	r3, [r3]
 729 004e DB43     		mvns	r3, r3
 730 0050 DBB2     		uxtb	r3, r3
 731 0052 1800     		movs	r0, r3
 732 0054 FFF7FEFF 		bl	PrISM_1_WritePulse0
 357:main.c        **** 		PrISM_1_WritePulse1(RGB_LED_MAX_VAL - calc_green);
 733              		.loc 1 357 0
 734 0058 0E23     		movs	r3, #14
 735 005a FB18     		adds	r3, r7, r3
 736 005c 1B78     		ldrb	r3, [r3]
 737 005e DB43     		mvns	r3, r3
 738 0060 DBB2     		uxtb	r3, r3
 739 0062 1800     		movs	r0, r3
 740 0064 FFF7FEFF 		bl	PrISM_1_WritePulse1
 741              	.L47:
 358:main.c        **** 		//PrISM_2_WritePulse0(RGB_LED_MAX_VAL - calc_blue);
 359:main.c        ****         		
 360:main.c        **** 		#ifdef DEBUG_ENABLED
 361:main.c        **** 		UART_UartPutString("PrISM Updated \r\n\n");
 362:main.c        ****         PrintNum(rgb_led_data[RGB_RED_INDEX]);
 363:main.c        ****         UART_UartPutCRLF(' ');
 364:main.c        ****         PrintNum(rgb_led_data[RGB_GREEN_INDEX]);
 365:main.c        ****         UART_UartPutCRLF(' ');
 366:main.c        ****         PrintNum(rgb_led_data[RGB_BLUE_INDEX]);
 367:main.c        ****         UART_UartPutCRLF(' ');
 368:main.c        ****         PrintNum(rgb_led_data[RGB_INTENSITY_INDEX]);
 369:main.c        **** 		UART_UartPutCRLF(' ');
 370:main.c        **** 		#endif
 371:main.c        **** 	}
 372:main.c        **** }
 742              		.loc 1 372 0
 743 0068 C046     		nop
 744 006a BD46     		mov	sp, r7
 745 006c 04B0     		add	sp, sp, #16
 746              		@ sp needed
 747 006e 80BD     		pop	{r7, pc}
 748              		.cfi_endproc
 749              	.LFE45:
 750              		.size	UpdateRGBled, .-UpdateRGBled
 751              		.data
 752              		.align	2
ARM GAS  C:\Users\lesia\AppData\Local\Temp\ccD2ZWq7.s 			page 21


 753              		.type	motorState.9399, %object
 754              		.size	motorState.9399, 4
 755              	motorState.9399:
 756 0000 01000000 		.word	1
 757              		.text
 758              	.Letext0:
 759              		.file 2 "Generated_Source\\PSoC4/cytypes.h"
 760              		.file 3 "Generated_Source\\PSoC4/BLE_Stack.h"
 761              		.file 4 "Generated_Source\\PSoC4/BLE_StackGap.h"
 762              		.file 5 "Generated_Source\\PSoC4/BLE_StackGatt.h"
 763              		.file 6 "Generated_Source\\PSoC4/BLE_StackGattServer.h"
 764              		.file 7 "Generated_Source\\PSoC4/BLE_eventHandler.h"
 765              		.file 8 "./main.h"
 766              		.file 9 "Generated_Source\\PSoC4/BLE.h"