ARM GAS  C:\Users\lesia\AppData\Local\Temp\ccdhjfso.s 			page 1


   1              		.syntax unified
   2              		.cpu cortex-m0
   3              		.fpu softvfp
   4              		.eabi_attribute 20, 1
   5              		.eabi_attribute 21, 1
   6              		.eabi_attribute 23, 3
   7              		.eabi_attribute 24, 1
   8              		.eabi_attribute 25, 1
   9              		.eabi_attribute 26, 1
  10              		.eabi_attribute 30, 6
  11              		.eabi_attribute 34, 0
  12              		.eabi_attribute 18, 4
  13              		.thumb
  14              		.syntax unified
  15              		.file	"WDT.c"
  16              		.text
  17              	.Ltext0:
  18              		.cfi_sections	.debug_frame
  19              		.comm	current_watchdog_counter,2,2
  20              		.comm	speedLeft,4,4
  21              		.comm	speedRight,4,4
  22              		.section	.text.InitializeWatchdog,"ax",%progbits
  23              		.align	2
  24              		.global	InitializeWatchdog
  25              		.code	16
  26              		.thumb_func
  27              		.type	InitializeWatchdog, %function
  28              	InitializeWatchdog:
  29              	.LFB35:
  30              		.file 1 "WDT.c"
   1:WDT.c         **** /*******************************************************************************
   2:WDT.c         **** * File Name: WDT.c
   3:WDT.c         **** *
   4:WDT.c         **** * Version: 1.0
   5:WDT.c         **** *
   6:WDT.c         **** * Description:
   7:WDT.c         **** * This file contains the functions to initialize Watchdog (WDT) counter and 
   8:WDT.c         **** * record times for various timing operation in application.
   9:WDT.c         **** *
  10:WDT.c         **** ********************************************************************************
  11:WDT.c         **** * Copyright 2015, Cypress Semiconductor Corporation.  All rights reserved.
  12:WDT.c         **** * You may use this file only in accordance with the license, terms, conditions,
  13:WDT.c         **** * disclaimers, and limitations in the end user license agreement accompanying
  14:WDT.c         **** * the software package with which this file was provided.
  15:WDT.c         **** *******************************************************************************/
  16:WDT.c         **** #include <main.h>
  17:WDT.c         **** 
  18:WDT.c         **** extern uint8 ble_gap_state;
  19:WDT.c         **** extern volatile uint16 RGBdataReceivedCounter;
  20:WDT.c         **** extern uint8 switch_Role;
  21:WDT.c         **** /*******************************************************************************
  22:WDT.c         **** * Function Name: InitializeWatchdog
  23:WDT.c         **** ********************************************************************************
  24:WDT.c         **** * Summary:
  25:WDT.c         **** *        Start watchdog timer with given period
  26:WDT.c         **** *
  27:WDT.c         **** * Parameters:
ARM GAS  C:\Users\lesia\AppData\Local\Temp\ccdhjfso.s 			page 2


  28:WDT.c         **** *  void
  29:WDT.c         **** *
  30:WDT.c         **** * Return:
  31:WDT.c         **** *  void
  32:WDT.c         **** *
  33:WDT.c         **** *******************************************************************************/
  34:WDT.c         **** void InitializeWatchdog(uint32 match_val)
  35:WDT.c         **** {
  31              		.loc 1 35 0
  32              		.cfi_startproc
  33              		@ args = 0, pretend = 0, frame = 8
  34              		@ frame_needed = 1, uses_anonymous_args = 0
  35 0000 80B5     		push	{r7, lr}
  36              		.cfi_def_cfa_offset 8
  37              		.cfi_offset 7, -8
  38              		.cfi_offset 14, -4
  39 0002 82B0     		sub	sp, sp, #8
  40              		.cfi_def_cfa_offset 16
  41 0004 00AF     		add	r7, sp, #0
  42              		.cfi_def_cfa_register 7
  43 0006 7860     		str	r0, [r7, #4]
  36:WDT.c         **** 	/* Unlock the WDT registers for modification */
  37:WDT.c         **** 	CySysWdtUnlock(); 
  44              		.loc 1 37 0
  45 0008 FFF7FEFF 		bl	CySysWdtUnlock
  38:WDT.c         **** 	
  39:WDT.c         **** 	/* Write Mode for Counter 0 as Interrupt on Match */
  40:WDT.c         ****     CySysWdtWriteMode(CY_SYS_WDT_COUNTER0, CY_SYS_WDT_MODE_INT);
  46              		.loc 1 40 0
  47 000c 0121     		movs	r1, #1
  48 000e 0020     		movs	r0, #0
  49 0010 FFF7FEFF 		bl	CySysWdtSetMode
  41:WDT.c         **** 	
  42:WDT.c         **** 	/* Set Clear on Match for Counter 0*/
  43:WDT.c         **** 	CySysWdtWriteClearOnMatch(CY_SYS_WDT_COUNTER0, TRUE);
  50              		.loc 1 43 0
  51 0014 0121     		movs	r1, #1
  52 0016 0020     		movs	r0, #0
  53 0018 FFF7FEFF 		bl	CySysWdtSetClearOnMatch
  44:WDT.c         ****     
  45:WDT.c         **** 	/* Write the match value equal to 1 second in Counter 0 */
  46:WDT.c         **** 	CySysWdtWriteMatch(CY_SYS_WDT_COUNTER0, match_val);
  54              		.loc 1 46 0
  55 001c 7B68     		ldr	r3, [r7, #4]
  56 001e 1900     		movs	r1, r3
  57 0020 0020     		movs	r0, #0
  58 0022 FFF7FEFF 		bl	CySysWdtSetMatch
  47:WDT.c         ****     CyDelayUs(WATCHDOG_REG_UPDATE_WAIT_TIME);
  59              		.loc 1 47 0
  60 0026 5A20     		movs	r0, #90
  61 0028 FFF7FEFF 		bl	CyDelayUs
  48:WDT.c         **** 	
  49:WDT.c         **** 	/* Enable Counter 0 */
  50:WDT.c         ****     CySysWdtEnable(CY_SYS_WDT_COUNTER0_MASK);
  62              		.loc 1 50 0
  63 002c 0120     		movs	r0, #1
  64 002e FFF7FEFF 		bl	CySysWdtEnable
ARM GAS  C:\Users\lesia\AppData\Local\Temp\ccdhjfso.s 			page 3


  51:WDT.c         **** 	
  52:WDT.c         **** 	/* Lock Watchdog to prevent further changes */
  53:WDT.c         ****     CySysWdtLock();
  65              		.loc 1 53 0
  66 0032 FFF7FEFF 		bl	CySysWdtLock
  54:WDT.c         **** 	
  55:WDT.c         **** 	isr_WDT_StartEx(WDT_INT_Handler);
  67              		.loc 1 55 0
  68 0036 044B     		ldr	r3, .L2
  69 0038 1800     		movs	r0, r3
  70 003a FFF7FEFF 		bl	isr_WDT_StartEx
  56:WDT.c         **** }
  71              		.loc 1 56 0
  72 003e C046     		nop
  73 0040 BD46     		mov	sp, r7
  74 0042 02B0     		add	sp, sp, #8
  75              		@ sp needed
  76 0044 80BD     		pop	{r7, pc}
  77              	.L3:
  78 0046 C046     		.align	2
  79              	.L2:
  80 0048 00000000 		.word	WDT_INT_Handler
  81              		.cfi_endproc
  82              	.LFE35:
  83              		.size	InitializeWatchdog, .-InitializeWatchdog
  84              		.section	.text.WDT_INT_Handler,"ax",%progbits
  85              		.align	2
  86              		.global	WDT_INT_Handler
  87              		.code	16
  88              		.thumb_func
  89              		.type	WDT_INT_Handler, %function
  90              	WDT_INT_Handler:
  91              	.LFB36:
  57:WDT.c         **** 
  58:WDT.c         **** /*******************************************************************************
  59:WDT.c         **** * Function Name: WDT_INT_Handler
  60:WDT.c         **** ********************************************************************************
  61:WDT.c         **** * Summary:
  62:WDT.c         **** *        Watchdog interrupt routine for counting operation
  63:WDT.c         **** *
  64:WDT.c         **** * Parameters:
  65:WDT.c         **** *  void
  66:WDT.c         **** *
  67:WDT.c         **** * Return:
  68:WDT.c         **** *  void
  69:WDT.c         **** *
  70:WDT.c         **** *******************************************************************************/
  71:WDT.c         **** void WDT_INT_Handler(void)
  72:WDT.c         **** {
  92              		.loc 1 72 0
  93              		.cfi_startproc
  94              		@ args = 0, pretend = 0, frame = 0
  95              		@ frame_needed = 1, uses_anonymous_args = 0
  96 0000 80B5     		push	{r7, lr}
  97              		.cfi_def_cfa_offset 8
  98              		.cfi_offset 7, -8
  99              		.cfi_offset 14, -4
ARM GAS  C:\Users\lesia\AppData\Local\Temp\ccdhjfso.s 			page 4


 100 0002 00AF     		add	r7, sp, #0
 101              		.cfi_def_cfa_register 7
  73:WDT.c         **** 	/* Clear Pending Interrupt */
  74:WDT.c         **** 	isr_WDT_ClearPending();
 102              		.loc 1 74 0
 103 0004 FFF7FEFF 		bl	isr_WDT_ClearPending
  75:WDT.c         **** 	
  76:WDT.c         **** 	/* If the Interrupt source is Counter 0 match, then process */
  77:WDT.c         **** 	if(CySysWdtGetInterruptSource() & CY_SYS_WDT_COUNTER0_INT)
 104              		.loc 1 77 0
 105 0008 FFF7FEFF 		bl	CySysWdtGetInterruptSource
 106 000c 0200     		movs	r2, r0
 107 000e 0423     		movs	r3, #4
 108 0010 1340     		ands	r3, r2
 109 0012 09D0     		beq	.L6
  78:WDT.c         **** 	{
  79:WDT.c         **** 		/* Clear Watchdog Interrupt from Counter 0 */
  80:WDT.c         **** 		CySysWdtClearInterrupt(CY_SYS_WDT_COUNTER0_INT);
 110              		.loc 1 80 0
 111 0014 0420     		movs	r0, #4
 112 0016 FFF7FEFF 		bl	CySysWdtClearInterrupt
  81:WDT.c         **** 		
  82:WDT.c         **** 		/* Increment global counter variable */
  83:WDT.c         **** 		current_watchdog_counter++;
 113              		.loc 1 83 0
 114 001a 054B     		ldr	r3, .L7
 115 001c 1B88     		ldrh	r3, [r3]
 116 001e 9BB2     		uxth	r3, r3
 117 0020 0133     		adds	r3, r3, #1
 118 0022 9AB2     		uxth	r2, r3
 119 0024 024B     		ldr	r3, .L7
 120 0026 1A80     		strh	r2, [r3]
 121              	.L6:
  84:WDT.c         **** 	}
  85:WDT.c         **** }
 122              		.loc 1 85 0
 123 0028 C046     		nop
 124 002a BD46     		mov	sp, r7
 125              		@ sp needed
 126 002c 80BD     		pop	{r7, pc}
 127              	.L8:
 128 002e C046     		.align	2
 129              	.L7:
 130 0030 00000000 		.word	current_watchdog_counter
 131              		.cfi_endproc
 132              	.LFE36:
 133              		.size	WDT_INT_Handler, .-WDT_INT_Handler
 134              		.text
 135              	.Letext0:
 136              		.file 2 "Generated_Source\\PSoC4/cytypes.h"
 137              		.file 3 "Generated_Source\\PSoC4/BLE_Stack.h"
 138              		.file 4 "Generated_Source\\PSoC4/BLE_eventHandler.h"
 139              		.file 5 "./main.h"